
all/gcc-6-ppc_7400:
000c85a8 S __xexit_cleanup
000c85a4 S _libiberty_concat_ptr
000c85a0 S _xre_syntax_options
000c7830 S _global_options
000c6ac0 S _global_options_set
000c6ab8 S _num_expanded_macros_counter
000c6ab4 S _num_macro_tokens_counter
000c69b4 S __cpp_trigraph_map
000c69b0 S __ZN17memory_block_pool8instanceE
000c69ac S _input_location
000c69a8 S _line_table
000c69a4 S _locale_encoding
000c69a0 S _locale_utf8
000c699c S _progname
000c697c S _hash_table_usage
000c6950 S _opts_obstack
000c694c S _compiler_params
000c6948 S _lang_specific_extra_outfiles
000c6944 S _is_cpp_driver
000c6940 S _report_times_to_file
000c693c S _compare_debug
000c6938 S _compare_debug_second
000c6934 S _compare_debug_opt
000c6930 S _n_infiles
000c692c S _outfiles
000c6928 S _input_filename_length
000c6920 S _used_arg
000c691c s _emutls_key
000c6918 s _emutls_size
000c6914 s _unseen_objects
000c6910 s _seen_objects
000c6908 s _terminator.5329
000c6904 s _marker.5223
000c6870 s _dwarf_reg_size_table
000c686c s __ZZN9__gnu_cxx27__verbose_terminate_handlerEvE11terminating
000c6868 s __ZN12_GLOBAL__N_113__new_handlerE
000c6830 s __ZN12_GLOBAL__N_114emergency_poolE
000c6804 s _xstrerror_buf
000c6800 s _first_break
000c67fc s _memoized_tmpdir
000c66fc s _re_syntax_table
000c66dc s _re_comp_buf
000c66d8 s _done.3387
000c66d4 s __ZZL12init_libraryvE11initialized
000c66d0 s __ZL4pchf
000c66cc s __ZL10fcache_tab
000c66c8 s __ZZ24location_get_source_linePKciPiE6buffer
000c66c4 s __ZZ24location_get_source_linePKciPiE3len
000c6604 s __ZL25global_diagnostic_context
000c65e4 s __ZL12vec_mem_desc
000c65e0 s __ZL19num_compiler_params
000c65dc s __ZL15params_finished
000c65d0 s __ZL3env
000c65cc s __ZL16at_file_supplied
000c65c8 s __ZL15print_help_list
000c65c4 s __ZL13print_version
000c65c0 s __ZL17verbose_only_flag
000c65bc s __ZL21print_subprocess_help
000c65b8 s __ZL6use_ld
000c65b4 s __ZL18target_system_root
000c65b0 s __ZL26target_system_root_changed
000c65ac s __ZL21target_sysroot_suffix
000c65a8 s __ZL26target_sysroot_hdrs_suffix
000c65a4 s __ZL15save_temps_flag
000c65a0 s __ZL17save_temps_prefix
000c659c s __ZL17save_temps_length
000c6598 s __ZL16compiler_version
000c6594 s __ZL15offload_targets
000c6568 s __ZL7obstack
000c653c s __ZL15collect_obstack
000c6510 s __ZL16multilib_obstack
000c650c s __ZL15multilib_select
000c6508 s __ZL16multilib_matches
000c6504 s __ZL17multilib_defaults
000c6500 s __ZL19multilib_exclusions
000c64fc s __ZL14multilib_reuse
000c64f8 s __ZL15user_specs_head
000c64f4 s __ZL15user_specs_tail
000c64f0 s __ZL9compilers
000c64ec s __ZL11n_compilers
000c64e8 s __ZL14linker_options
000c64e4 s __ZL17assembler_options
000c64e0 s __ZL20preprocessor_options
000c64dc s __ZL14machine_suffix
000c64d8 s __ZL19just_machine_suffix
000c64d4 s __ZL15gcc_exec_prefix
000c64d0 s __ZL18gcc_libexec_prefix
000c64cc s __ZL12multilib_dir
000c64c8 s __ZL15multilib_os_dir
000c64c4 s __ZL13multiarch_dir
000c64c0 s __ZL5specs
000c64bc s __ZL24processing_spec_function
000c64b8 s __ZL6argbuf
000c64b4 s __ZL6have_c
000c64b0 s __ZL6have_o
000c64ac s __ZL11output_file
000c64a8 s __ZL10temp_names
000c64a4 s __ZL15execution_count
000c64a0 s __ZL12signal_count
000c649c s __ZL13temp_filename
000c6498 s __ZL20temp_filename_length
000c6494 s __ZL19always_delete_queue
000c6490 s __ZL20failure_delete_queue
000c648c s __ZL8switches
000c6488 s __ZL10n_switches
000c6484 s __ZL16n_switches_alloc
000c647c s __ZL20switches_debug_check
000c6474 s __ZL22n_switches_debug_check
000c646c s __ZL28n_switches_alloc_debug_check
000c6464 s __ZL21debug_check_temp_file
000c6460 s __ZL7infiles
000c645c s __ZL15n_infiles_alloc
000c6458 s __ZL21spec_undefvar_allowed
000c6454 s __ZL14combine_inputs
000c6450 s __ZL15added_libraries
000c644c s __ZL9spec_lang
000c6448 s __ZL23last_language_n_infiles
000c6444 s __ZL18gcc_input_filename
000c6440 s __ZL17input_file_number
000c643c s __ZL15basename_length
000c6438 s __ZL24suffixed_basename_length
000c6434 s __ZL14input_basename
000c6430 s __ZL12input_suffix
000c63d0 s __ZL10input_stat
000c63cc s __ZL14input_stat_set
000c63c8 s __ZL19input_file_compiler
000c63c4 s __ZL9arg_going
000c63c0 s __ZL15delete_this_arg
000c63bc s __ZL19this_is_output_file
000c63b8 s __ZL20this_is_library_file
000c63b4 s __ZL21this_is_linker_script
000c63b0 s __ZL15input_from_pipe
000c63ac s __ZL12suffix_subst
000c63a8 s __ZL10mdswitches
000c63a4 s __ZL12n_mdswitches
000c6390 s __ZZL36compare_debug_dump_opt_spec_functioniPPKcE11random_seed
000c638c s __ZL17debug_auxbase_opt
000c6378 S __ZTVN9__gnu_cxx26__concurrence_unlock_errorE
000c6364 S __ZTVN9__gnu_cxx24__concurrence_lock_errorE
000c6358 S __ZTIN9__gnu_cxx26__concurrence_unlock_errorE
000c634c S __ZTIN9__gnu_cxx24__concurrence_lock_errorE
000c6190 s _byte_reg_unset_dummy
000c6044 S __ZTVSt9type_info
000c603c S __ZTISt9type_info
000c6010 S __ZTVN10__cxxabiv120__si_class_type_infoE
000c6004 S __ZTIN10__cxxabiv120__si_class_type_infoE
000c5fec S __ZTVN10__cxxabiv119__foreign_exceptionE
000c5fd8 S __ZTVN10__cxxabiv115__forced_unwindE
000c5fc4 S __ZTVSt13bad_exception
000c5fb0 S __ZTVSt9exception
000c5fa8 S __ZTIN10__cxxabiv119__foreign_exceptionE
000c5fa0 S __ZTIN10__cxxabiv115__forced_unwindE
000c5f94 S __ZTISt13bad_exception
000c5f8c S __ZTISt9exception
000c5cf8 s _cplus_demangle_builtin_types
000c58b8 s _cplus_demangle_operators
000c57f4 s _standard_subs
000c57c8 S __ZTVN10__cxxabiv117__class_type_infoE
000c57bc S __ZTIN10__cxxabiv117__class_type_infoE
000c57a8 S __ZTVSt9bad_alloc
000c579c S __ZTISt9bad_alloc
000c5778 S _funcs
000c5338 S _cplus_demangle_operators
000c50a4 S _cplus_demangle_builtin_types
000c4fe0 s _standard_subs
000c4f90 s _re_error_msgid
000c4f54 s __ZL10monthnames
000c4f3c S __ZTV13fixit_replace
000c4f24 S __ZTV12fixit_remove
000c4f0c S __ZTV12fixit_insert
000c4ee0 s __ZL17digraph_spellings
000c4c40 s __ZL15token_spellings
000c4bb0 s __ZL13builtin_array
000c4b58 s __ZL14operator_array
000c4a5c s __ZL6dtable
000c4a50 s __ZL14linemarker_dir
000c49ec s __ZL14conversion_tab
000c49d0 S __ZTV14pretty_printer
000c4994 s __ZL21diagnostic_kind_color
000c4958 s __ZZ23diagnostic_build_prefixP18diagnostic_contextPK15diagnostic_infoE20diagnostic_kind_text
000c4948 s __ZL7bt_stop
000c4914 s __ZL38cl_enum_compressed_debug_sections_data
000c48d8 s __ZL32cl_enum_cpp_normalize_level_data
000c48a8 s __ZL34cl_enum_diagnostic_color_rule_data
000c4884 s __ZL38cl_enum_diagnostic_prefixing_rule_data
000c4854 s __ZL33cl_enum_dwarf_gnat_encodings_data
000c4830 s __ZL29cl_enum_excess_precision_data
000c4800 s __ZL29cl_enum_fp_contract_mode_data
000c47b8 s __ZL23cl_enum_fpu_type_t_data
000c477c s __ZL24cl_enum_gfc_convert_data
000c474c s __ZL25cl_enum_gfc_fcoarray_data
000c4704 s __ZL32cl_enum_gfc_init_local_real_data
000c46e0 s __ZL26cl_enum_ira_algorithm_data
000c46b0 s __ZL23cl_enum_ira_region_data
000c4674 s __ZL28cl_enum_ivar_visibility_data
000c462c s __ZL30cl_enum_lto_linker_output_data
000c45e4 s __ZL32cl_enum_lto_partition_model_data
000c45c0 s __ZL24cl_enum_offload_abi_data
000c459c s __ZL37cl_enum_reorder_blocks_algorithm_data
000c4578 s __ZL35cl_enum_rs6000_alignment_flags_data
000c42c0 s __ZL33cl_enum_rs6000_cpu_opt_value_data
000c4284 s __ZL30cl_enum_rs6000_float_gprs_data
000c4254 s __ZL34cl_enum_rs6000_traceback_type_data
000c4230 s __ZL23cl_enum_sso_struct_data
000c4200 s __ZL30cl_enum_stack_reuse_level_data
000c41c4 s __ZL30cl_enum_symbol_visibility_data
000c4188 s __ZL22cl_enum_tls_model_data
000c4158 s __ZL28cl_enum_vect_cost_model_data
000c4128 s __ZL25cl_enum_vtv_priority_data
000c3e88 S _cl_enums
000c3118 S _global_options_init
000c30e4 S _lang_names
000ac998 S _cl_options
000ac834 s __ZL10option_map
000ac804 S _debug_type_names
000ac6d8 S _sanitizer_opts
000ac690 s __ZZ20common_handle_optionP11gcc_optionsS0_PK17cl_decoded_optionjijPK18cl_option_handlersP18diagnostic_contextE9specifics
000ab520 s __ZL23lang_independent_params
000ab3a0 s __ZL9asm_names
000ab374 s __ZL17driver_self_specs
000aab40 s __ZL17default_compilers
000aaac0 s __ZL13extra_specs_1
000aaa28 s __ZL21static_spec_functions
000aa79c d _emutls_mutex
000aa794 d _once.7922
000aa78c d _once_regsizes.9405
000aa788 D __ZN10__cxxabiv120__unexpected_handlerE
000aa784 D __ZN10__cxxabiv119__terminate_handlerE
000aa774 d ___emutls_v._ZZN12_GLOBAL__N_110get_globalEvE6global
000aa770 d _name
000aa76c D _obstack_alloc_failed_handler
000aa768 D _htab_hash_pointer
000aa764 D _htab_eq_pointer
000aa760 D _xre_max_failures
000aa75c D _open_quote
000aa758 D _close_quote
000aa754 D _identifier_to_locale_alloc
000aa750 D _identifier_to_locale_free
000aa6d0 d __ZL10color_dict
000aa6cc D _global_dc
000aa6c0 D _vNULL
000aa6a8 d __ZL30values_PARAM_PARLOOPS_SCHEDULE
000aa6a4 d __ZL10std_prefix
000aa67c D _targetm_common
000aa674 d __ZZL31darwin_find_version_from_kernelvE14osversion_name
000aa66c d __ZZL20detect_caches_darwinvE12l1_size_name
000aa664 d __ZZL20detect_caches_darwinvE12l1_line_name
000aa65c d __ZZL20detect_caches_darwinvE12l2_size_name
000aa658 d __ZL14multilib_extra
000aa654 d __ZL16multilib_options
000aa650 d __ZL12spec_machine
000aa64c d __ZL13cross_compile
000aa648 d __ZL15greatest_status
000aa644 d __ZL9asm_debug
000aa640 d __ZL8cpp_spec
000aa63c d __ZL8cc1_spec
000aa638 d __ZL12cc1plus_spec
000aa634 d __ZL24link_gcc_c_sequence_spec
000aa630 d __ZL13link_ssp_spec
000aa62c d __ZL8asm_spec
000aa628 d __ZL14asm_final_spec
000aa624 d __ZL9link_spec
000aa620 d __ZL8lib_spec
000aa61c d __ZL14link_gomp_spec
000aa618 d __ZL11libgcc_spec
000aa614 d __ZL12endfile_spec
000aa610 d __ZL14startfile_spec
000aa60c d __ZL16linker_name_spec
000aa608 d __ZL23linker_plugin_file_spec
000aa604 d __ZL16lto_wrapper_spec
000aa600 d __ZL12lto_gcc_spec
000aa5fc d __ZL14post_link_spec
000aa5f8 d __ZL17link_command_spec
000aa5f4 d __ZL16link_libgcc_spec
000aa5f0 d __ZL21startfile_prefix_spec
000aa5ec d __ZL12sysroot_spec
000aa5e8 d __ZL19sysroot_suffix_spec
000aa5e4 d __ZL24sysroot_hdrs_suffix_spec
000aa5e0 d __ZL9self_spec
000aa5dc d __ZL16trad_capable_cpp
000aa5d8 d __ZL18cpp_unique_options
000aa5d4 d __ZL11cpp_options
000aa5d0 d __ZL17cpp_debug_options
000aa5cc d __ZL11cc1_options
000aa5c8 d __ZL11asm_options
000aa5c4 d __ZL9invoke_as
000aa5b8 d __ZL13exec_prefixes
000aa5ac d __ZL18startfile_prefixes
000aa5a0 d __ZL16include_prefixes
000aa59c d __ZL14md_exec_prefix
000aa598 d __ZL19md_startfile_prefix
000aa594 d __ZL21md_startfile_prefix_1
000aa014 d __ZL12static_specs
000aa010 d dyld__mach_header
000aa00c D _NXArgc
000aa008 D _NXArgv
000aa004 D _environ
000aa000 D ___progname
000a9fc4 S __ZTSN9__gnu_cxx26__concurrence_unlock_errorE
000a9f9c S __ZTSN9__gnu_cxx24__concurrence_lock_errorE
000a9e70 s _pex_child_error.isra.2
000a2240 S __ZTSSt9type_info
000a2218 S __ZTSN10__cxxabiv120__si_class_type_infoE
000a2214 S __ZSt7nothrow
000a21f0 S __ZTSN10__cxxabiv119__foreign_exceptionE
000a21d0 S __ZTSN10__cxxabiv115__forced_unwindE
000a21bc S __ZTSSt13bad_exception
000a21ac S __ZTSSt9exception
000a2188 S __ZTSN10__cxxabiv117__class_type_infoE
000a2178 S __ZTSSt9bad_alloc
000a2138 s _next_state.2977
000a2048 s _result_type.2978
000a1e48 S __sch_istable
000a1d48 S __sch_tolower
000a1c48 S __sch_toupper
000a1c40 s _tmp
000a1c34 s _usrtmp
000a1c28 s _vartmp
000a1b28 S __hex_value
000a1948 s _prime_tab
000a1908 s _fillbuf
000a18fc s __ZZL11approx_sqrtdE12__FUNCTION__
000a18e4 s __ZZ23_cpp_builtin_macro_textE12__FUNCTION__
000a18d0 s __ZZ16_cpp_pop_contextE12__FUNCTION__
000a18b8 s __ZZL22reached_end_of_contextP11cpp_contextE12__FUNCTION__
000a1898 s __ZZL31consume_next_token_from_contextP10cpp_readerPPK9cpp_tokenPjE12__FUNCTION__
000a1884 s __ZZL16paste_all_tokensP10cpp_readerPK9cpp_tokenE12__FUNCTION__
000a186c s __ZZL21tokens_buff_add_tokenP9_cpp_buffPjPK9cpp_tokenjjPK14line_map_macrojE12__FUNCTION__
000a1854 s __ZZL22macro_real_token_countPK9cpp_macroE12__FUNCTION__
000a1840 s __ZZ18_cpp_backup_tokensP10cpp_readerjE12__FUNCTION__
000a1824 s __ZZ25linemap_compare_locationsP9line_mapsjjE12__FUNCTION__
000a1808 s __ZZ24linemap_resolve_locationP9line_mapsj24location_resolution_kindPPK17line_map_ordinaryE12__FUNCTION__
000a17f0 s __ZZ23linemap_expand_locationP9line_mapsPK8line_mapjE12__FUNCTION__
000a17b0 s __ZZ23_cpp_process_line_notesE12__FUNCTION__
000a1788 s __ZZ36_cpp_remaining_tokens_num_in_contextE12__FUNCTION__
000a176c s __ZZL26_cpp_token_from_context_atP11cpp_contextiE12__FUNCTION__
000a175c s __ZZ14_cpp_lex_tokenE12__FUNCTION__
000a174c s __ZZL14lex_raw_stringP10cpp_readerP9cpp_tokenPKhS4_E12__FUNCTION__
000a1740 s __ZZL11utf8_to_ucnPhPKhE12__FUNCTION__
000a1655 s __ZL13lang_defaults
000a161b s __ZL5optab
000a1610 s __ZZL10eval_tokenP10cpp_readerPK9cpp_tokenjE12__FUNCTION__
000a1600 s __ZZL14cpp_diagnosticP10cpp_readeriiPKcPPcE12__FUNCTION__
000a15e4 s __ZZL24cpp_diagnostic_with_lineP10cpp_readeriijjPKcPPcE12__FUNCTION__
000a15d0 s __ZZL18cpp_pop_definitionP10cpp_readerP16def_pragma_macroE12__FUNCTION__
000a15c8 s __ZZL19one_utf8_to_cppcharPPKhPmPjE5masks
000a15c0 s __ZZL19one_utf8_to_cppcharPPKhPmPjE5patns
000a15b8 s __ZZL19one_cppchar_to_utf8jPPhPmE5masks
000a15b0 s __ZZL19one_cppchar_to_utf8jPPhPmE6limits
0009dbc8 s __ZL9ucnranges
0009db90 S _bug_report_url
0009db88 S _version_string
0009db70 S _pkgversion_string
0009db60 s __ZZL15total_lines_numPKcE12__FUNCTION__
0009db50 s __ZZL13read_line_numP6fcachemPPcPlE12__FUNCTION__
0009db40 s __ZZL13get_next_lineP6fcachePPcPlE12__FUNCTION__
0009db2c s __ZZ18dump_location_infoP7__sFILEE12__FUNCTION__
0009db20 s __ZZ9pp_formatP14pretty_printerP9text_infoE12__FUNCTION__
0009db04 s __ZZ24pp_output_formatted_textP14pretty_printerE12__FUNCTION__
0009daf0 s __ZZL16decode_utf8_charPKhmPjE12__FUNCTION__
0009dae8 s __ZZN12_GLOBAL__N_16layoutC4EP18diagnostic_contextPK15diagnostic_infoE12__FUNCTION__
0009dad0 s __ZZN12_GLOBAL__N_16layout20calculate_line_spansEvE12__FUNCTION__
0009dac4 s __ZZN12_GLOBAL__N_19line_spanC4EjjE12__FUNCTION__
0009daac s __ZZNK12_GLOBAL__N_16layout21get_expanded_locationEPKNS_9line_spanEE12__FUNCTION__
0009da80 s __ZZN12_GLOBAL__N_1L42get_line_width_without_trailing_whitespaceEPKciE12__FUNCTION__
0009da70 s __ZZNK12_GLOBAL__N_112layout_range14contains_pointEiiE12__FUNCTION__
0009da60 s __ZZN12_GLOBAL__N_19colorizer12finish_stateEiE12__FUNCTION__
0009da54 s __ZZN12_GLOBAL__N_19colorizer11begin_stateEiE12__FUNCTION__
0009da40 s __ZZN12_GLOBAL__N_16layout16print_any_fixitsEiPK13rich_locationE12__FUNCTION__
0009da30 s __ZZ13colorize_init23diagnostic_color_rule_tE12__FUNCTION__
0009da18 s __ZZ13trim_filenamePKcE9this_file
0009d9f8 s __ZZ30diagnostic_set_info_translatedP15diagnostic_infoPKcPPcP13rich_location12diagnostic_tE12__FUNCTION__
0009d9e4 s __ZZ19diagnostic_set_infoP15diagnostic_infoPKcPPcP13rich_location12diagnostic_tE12__FUNCTION__
0009d9cc s __ZZ23diagnostic_build_prefixP18diagnostic_contextPK15diagnostic_infoE12__FUNCTION__
0009d9ac s __ZZ30diagnostic_action_after_outputP18diagnostic_context12diagnostic_tE12__FUNCTION__
0009d9a0 s __ZZ11fatal_errorjPKczE12__FUNCTION__
0009d990 s __ZZ14internal_errorPKczE12__FUNCTION__
0009d974 s __ZZ27internal_error_no_backtracePKczE12__FUNCTION__
0009d794 S _prime_tab
0009d774 s __ZZ29hash_table_higher_prime_indexmE12__FUNCTION__
0009d760 s __ZZN9mem_usage16release_overheadEmE12__FUNCTION__
0009d750 s __ZZNK10hash_tableIN8hash_mapIPKv14mem_usage_pairI9mem_usageE21simple_hashmap_traitsI19default_hash_traitsIS2_ES5_EE10hash_entryE11xcallocatorE13alloc_entriesEmE12__FUNCTION__
0009d740 S _empty_optimization_table
0009d730 s __ZZNK10hash_tableIN8hash_mapIN21mem_alloc_descriptionI9vec_usageE17mem_location_hashEPS2_21simple_hashmap_traitsI19default_hash_traitsIS4_ES5_EE10hash_entryE11xcallocatorE13alloc_entriesEmE12__FUNCTION__
0009d71c s __ZZN9mem_usage16release_overheadEmE12__FUNCTION__
0009d70c s __ZZNK10hash_tableIN8hash_mapIPKv14mem_usage_pairI9mem_usageE21simple_hashmap_traitsI19default_hash_traitsIS2_ES5_EE10hash_entryE11xcallocatorE13alloc_entriesEmE12__FUNCTION__
0009d6fc s __ZZNK10hash_tableIN8hash_mapIPKv14mem_usage_pairI9vec_usageE21simple_hashmap_traitsI19default_hash_traitsIS2_ES5_EE10hash_entryE11xcallocatorE13alloc_entriesEmE12__FUNCTION__
0009d6e4 s __ZZN10vec_prefix22calculate_allocation_1EjjE12__FUNCTION__
0009d6e0 S _cl_enums_count
0009d6dc S _cl_options_count
0009d6d8 S _cl_lang_count
0009d6bc s __ZZ25common_handle_option_autoP11gcc_optionsS0_PK17cl_decoded_optionjijPK18cl_option_handlersP18diagnostic_contextE12__FUNCTION__
0009d6a4 s __ZZ21opt_enum_arg_to_valuemPKcPijE12__FUNCTION__
0009d688 s __ZZ26add_misspelling_candidatesP8auto_vecIPcLm0EEPK9cl_optionPKcE12__FUNCTION__
0009d670 s __ZZL21decode_cmdline_optionPPKcjP17cl_decoded_optionE12__FUNCTION__
0009d654 s __ZZL25generate_canonical_optionmPKciP17cl_decoded_optionE12__FUNCTION__
0009d644 s __ZZL13prune_optionsPP17cl_decoded_optionPjE12__FUNCTION__
0009d634 s __ZZ15generate_optionmPKcijP17cl_decoded_optionE12__FUNCTION__
0009d620 s __ZZ19read_cmdline_optionP11gcc_optionsS0_P17cl_decoded_optionjjPK18cl_option_handlersP18diagnostic_contextE12__FUNCTION__
0009d608 s __ZZ22control_warning_optionjiPKcbjjPK18cl_option_handlersP11gcc_optionsS5_P18diagnostic_contextE12__FUNCTION__
0009d600 s __ZZ23set_struct_debug_optionP11gcc_optionsjPKcE7dfn_lbl
0009d5f8 s __ZZ23set_struct_debug_optionP11gcc_optionsjPKcE7dir_lbl
0009d5f0 s __ZZ23set_struct_debug_optionP11gcc_optionsjPKcE7ind_lbl
0009d5e8 s __ZZ23set_struct_debug_optionP11gcc_optionsjPKcE7ord_lbl
0009d5e0 s __ZZ23set_struct_debug_optionP11gcc_optionsjPKcE7gen_lbl
0009d5d8 s __ZZ23set_struct_debug_optionP11gcc_optionsjPKcE8none_lbl
0009d5d4 s __ZZ23set_struct_debug_optionP11gcc_optionsjPKcE7any_lbl
0009d5cc s __ZZ23set_struct_debug_optionP11gcc_optionsjPKcE8base_lbl
0009d5c8 s __ZZ23set_struct_debug_optionP11gcc_optionsjPKcE7sys_lbl
0009d5a4 s __ZL16undocumented_msg
0009d580 s __ZL17use_diagnosed_msg
0009d030 s __ZL21default_options_table
0009d018 s __ZZ20target_handle_optionP11gcc_optionsS0_PK17cl_decoded_optionjijPK18cl_option_handlersP18diagnostic_contextE12__FUNCTION__
0009d004 s __ZZ19init_options_structP11gcc_optionsS0_E12__FUNCTION__
0009cfec s __ZZL20maybe_default_optionP11gcc_optionsS0_PK15default_optionsibbbjPK18cl_option_handlersjP18diagnostic_contextE12__FUNCTION__
0009cfd4 s __ZZ20common_handle_optionP11gcc_optionsS0_PK17cl_decoded_optionjijPK18cl_option_handlersP18diagnostic_contextE12__FUNCTION__
0009cfc0 s __ZZL19print_specific_helpjjjP11gcc_optionsjE12__FUNCTION__
0009cfa8 s __ZZL20set_Wstrict_aliasingP11gcc_optionsiE12__FUNCTION__
0009cf9c s __ZZ10add_paramsPK10param_infomE12__FUNCTION__
0009cf88 s __ZZ18global_init_paramsvE12__FUNCTION__
0009cf78 s __ZZ15set_param_valuePKciPiS1_E12__FUNCTION__
0009cf5c s __ZZL24set_param_value_internal14compiler_paramiPiS0_bE12__FUNCTION__
0009cf44 s __ZZ23set_default_param_value14compiler_paramiE12__FUNCTION__
0009cf30 s __ZZ17init_param_valuesPiE12__FUNCTION__
0009cf10 s __ZL32rs6000_option_optimization_table
0009cefc s __ZZ19find_closest_stringPKcPK8auto_vecIS0_Lm0EEE12__FUNCTION__
0009cee8 s __ZZ18ggc_internal_allocmPFvPvEmmE12__FUNCTION__
0009cecc s __ZZ26ggc_internal_cleared_allocmPFvPvEmmE12__FUNCTION__
0009cec8 s __ZL17dir_separator_str
0009cc40 s __ZL23configuration_arguments
0009cc38 s __ZL12thread_model
0009cc30 s __ZZN11env_manager4xputEPKcE12__FUNCTION__
0009cc28 s __ZZN11env_manager7restoreEvE12__FUNCTION__
0009cc10 s __ZZL22greater_than_spec_funciPPKcE12__FUNCTION__
0009cbe8 s __ZZL36compare_debug_dump_opt_spec_functioniPPKcE12__FUNCTION__
0009cbc8 s __ZZL28find_plugindir_spec_functioniPPKcE12__FUNCTION__
0009cbb0 s __ZZL23find_file_spec_functioniPPKcE12__FUNCTION__
0009cb98 s __ZZL21include_spec_functioniPPKcE12__FUNCTION__
0009cb78 s __ZZL29version_compare_spec_functioniPPKcE12__FUNCTION__
0009cb60 s __ZZL23compare_version_stringsPKcS0_E12__FUNCTION__
0009cb40 s __ZZL28remove_outfile_spec_functioniPPKcE12__FUNCTION__
0009cb20 s __ZZL29replace_outfile_spec_functioniPPKcE12__FUNCTION__
0009cb18 s __ZZL7executevE12__FUNCTION__
0009cb08 s __ZZL14insert_wrapperPKcE12__FUNCTION__
0009caf8 s __ZZL15process_commandjP17cl_decoded_optionE12__FUNCTION__
0009cae0 s __ZZL20driver_handle_optionP11gcc_optionsS0_PK17cl_decoded_optionjijPK18cl_option_handlersP18diagnostic_contextE12__FUNCTION__
0009cac4 s __ZZN6driver24build_option_suggestionsEvE12__FUNCTION__
0009cab4 s __ZZN6driver14suggest_optionEPKcE12__FUNCTION__
0009caa0 s __ZZNK6driver18do_spec_on_infilesEvE12__FUNCTION__
0009ca20 s __GLOBAL__sub_I_eh_alloc.cc
0009ca10 s __GLOBAL__sub_I__ZN17memory_block_pool8instanceE
0009c9c8 s __GLOBAL__sub_I_prime_tab
0009c980 s __GLOBAL__sub_I_vNULL
0009c924 S _main
0009c700 s __GLOBAL__sub_I__ZN11env_manager4initEbb
0009c608 S __ZN6driver4mainEiPPc
0007385c t eh_rest_world_r10
00073850 t rest_world
0007374c t save_world
000736f4 t restGPRx
000736a4 t restGPR
00073654 t saveGPR
00073600 t restFP
000735b0 t saveFP
000731f4 t ___udivdi3
000731a8 t ___emutls_register_common
00072f98 t ___emutls_get_address
00072f4c t _emutls_init
00072eec t _emutls_destroy
00072edc t __darwin10_Unwind_FindEnclosingFunction
00072a94 t __Unwind_Find_FDE
00072a60 t ___deregister_frame
00072a54 t ___deregister_frame_info
00072998 t _live_image_destructor
00072860 t ___deregister_frame_info_bases
000727f8 t ___register_frame_table
000727ac t ___register_frame_info_table
00072764 t ___register_frame_info_table_bases
000726ec t ___register_frame
00072688 t ___register_frame_info
00072624 t ___register_frame_info_bases
00071fa4 t _search_object
00071ee8 t _fde_mixed_encoding_compare
00071d5c t _linear_search_fdes
00071bdc t _add_fdes
00071a30 t _classify_object_over_fdes
000719a4 t _fde_single_encoding_compare
0007193c t _base_from_object.isra.3
000717f4 t _get_cie_encoding
00071658 t _read_encoded_value_with_base
000715f0 t _size_of_encoded_value
0007154c t _frame_heapsort
0007147c t _frame_downheap
00071454 t _fde_unencoded_compare
00071398 t __Unwind_Backtrace
0007136c t __Unwind_DeleteException
000712d4 t __Unwind_Resume_or_Rethrow
00071240 t __Unwind_Resume
000711ac t __Unwind_ForcedUnwind
00071080 t __Unwind_RaiseException
00071074 t __Unwind_DebugHook
00070f74 t ___frame_state_for
00070f64 t __Unwind_GetTextRelBase
00070f54 t __Unwind_GetDataRelBase
00070f10 t __Unwind_FindEnclosingFunction
00070f00 t __Unwind_GetRegionStart
00070ef0 t __Unwind_GetLanguageSpecificData
00070ee0 t __Unwind_SetIP
00070ec4 t __Unwind_GetIPInfo
00070eb4 t __Unwind_GetIP
00070e14 t __Unwind_SetGR
00070e04 t __Unwind_GetCFA
00070d68 t __Unwind_GetGR
00070bb4 t _uw_install_context_1
00070ab8 t __Unwind_ForcedUnwind_Phase2
000709fc t __Unwind_RaiseException_Phase2
0007092c t _uw_update_context
00070650 t _uw_init_context_1
000702b8 t _uw_update_context_1
0006f6d0 t _execute_stack_op
0006f4cc t _init_dwarf_reg_size_table
0006f0d4 t _uw_frame_state_for
0006e6c0 t _execute_cfa_program
0006e648 t _base_of_encoded_value
0006e4ac t _read_encoded_value_with_base
0006e2f4 T __ZN9__gnu_cxx27__verbose_terminate_handlerEv
0006e2e8 T __ZNSt9type_infoD2Ev
0006e2d8 T __ZNKSt9type_info14__is_pointer_pEv
0006e278 T __ZNKSt9type_info10__do_catchEPKS_PPvj
0006e268 T __ZNSt9type_infoD0Ev
0006e258 T __ZNKSt9type_info11__do_upcastEPKN10__cxxabiv117__class_type_infoEPPv
0006e248 T __ZNKSt9type_info15__is_function_pEv
0006e23c T __ZNSt9type_infoD1Ev
0006e1d4 T __ZNK10__cxxabiv120__si_class_type_info11__do_upcastEPKNS_17__class_type_infoEPKvRNS1_15__upcast_resultE
0006e1c8 T __ZN10__cxxabiv120__si_class_type_infoD2Ev
0006e12c T __ZNK10__cxxabiv120__si_class_type_info20__do_find_public_srcEiPKvPKNS_17__class_type_infoES2_
0006dfdc T __ZNK10__cxxabiv120__si_class_type_info12__do_dyncastEiNS_17__class_type_info10__sub_kindEPKS1_PKvS4_S6_RNS1_16__dyncast_resultE
0006df90 T __ZN10__cxxabiv120__si_class_type_infoD0Ev
0006df64 T __ZN10__cxxabiv120__si_class_type_infoD1Ev
0006df34 T ___cxa_deleted_virtual
0006df04 T ___cxa_pure_virtual
0006def8 T __Znam
0006de6c T __Znwm
0006de3c T __ZSt15get_new_handlerv
0006de00 T __ZSt15set_new_handlerPFvvE
0006dda8 T ___cxa_current_exception_type
0006dd1c T ___cxa_rethrow
0006dc8c T ___cxa_throw
0006dc00 t __ZL23__gxx_exception_cleanup19_Unwind_Reason_CodeP17_Unwind_Exception
0006dbcc T __ZSt14get_unexpectedv
0006db90 T __ZSt14set_unexpectedPFvvE
0006db5c T __ZSt13get_terminatev
0006db20 T __ZSt13set_terminatePFvvE
0006daec T __ZSt10unexpectedv
0006dad0 T __ZN10__cxxabiv112__unexpectedEPFvvE
0006da9c T __ZSt9terminatev
0006da58 T __ZN10__cxxabiv111__terminateEPFvvE
0006d958 T ___cxa_call_unexpected
0006d3d0 T ___gxx_personality_v0
0006d2bc t __ZL17parse_lsda_headerP15_Unwind_ContextPKhP16lsda_header_info
0006d244 t __ZL21base_of_encoded_valuehP15_Unwind_Context
0006d1b0 t __ZL20check_exception_specP16lsda_header_infoPKSt9type_infoPvl
0006d088 t __ZL15get_ttype_entryP16lsda_header_infom
0006ceec t __ZL28read_encoded_value_with_basehjPKhPj
0006ce64 t __ZL16get_adjusted_ptrPKSt9type_infoS1_PPv
0006ce58 T ___cxa_get_globals_fast
0006ce34 T ___cxa_get_globals
0006ce10 T __ZGTtNKSt13bad_exception4whatEv
0006ce04 T __ZGTtNKSt13bad_exceptionD1Ev
0006cde0 T __ZGTtNKSt9exception4whatEv
0006cdd4 T __ZGTtNKSt9exceptionD1Ev
0006cdc4 T __ZN10__cxxabiv119__foreign_exceptionD0Ev
0006cdb8 T __ZN10__cxxabiv119__foreign_exceptionD1Ev
0006cdac T __ZN10__cxxabiv119__foreign_exceptionD2Ev
0006cd9c T __ZN10__cxxabiv115__forced_unwindD0Ev
0006cd90 T __ZN10__cxxabiv115__forced_unwindD1Ev
0006cd84 T __ZN10__cxxabiv115__forced_unwindD2Ev
0006cd78 T __ZNSt13bad_exceptionD2Ev
0006cd6c T __ZNSt9exceptionD2Ev
0006cd48 T __ZNKSt9exception4whatEv
0006cd24 T __ZNKSt13bad_exception4whatEv
0006cd14 T __ZNSt13bad_exceptionD0Ev
0006cd04 T __ZNSt9exceptionD0Ev
0006ccf8 T __ZNSt13bad_exceptionD1Ev
0006ccec T __ZNSt9exceptionD1Ev
0006ccc0 T __ZSt19uncaught_exceptionsv
0006cc8c T __ZSt18uncaught_exceptionv
0006cbb8 T ___cxa_end_catch
0006caf0 T ___cxa_begin_catch
0006cae0 T ___cxa_get_exception_ptr
0006ca88 T ___cxa_call_terminate
0006ca44 T __ZN9__gnu_cxx30__throw_concurrence_lock_errorEv
0006c9f8 T __ZN9__gnu_cxx26__concurrence_unlock_errorD0Ev
0006c9ac T __ZN9__gnu_cxx24__concurrence_lock_errorD0Ev
0006c980 T __ZN9__gnu_cxx26__concurrence_unlock_errorD1Ev
0006c954 T __ZN9__gnu_cxx24__concurrence_lock_errorD1Ev
0006c930 T __ZNK9__gnu_cxx26__concurrence_unlock_error4whatEv
0006c90c T __ZNK9__gnu_cxx24__concurrence_lock_error4whatEv
0006c8bc T ___cxa_free_dependent_exception
0006c85c T ___cxa_allocate_dependent_exception
0006c810 T ___cxa_free_exception
0006c7b4 T ___cxa_allocate_exception
0006c768 T __ZN9__gnu_cxx9__freeresEv
0006c630 t __ZN12_GLOBAL__N_14pool8allocateEm.constprop.3
0006c4d8 t __ZN12_GLOBAL__N_14pool4freeEPv.constprop.2
0006c4cc T __ZdaPvm
0006c4c0 T __ZdaPv
0006c4b4 T __ZdlPvm
0006c4a8 T __ZdlPv
0006c45c T ___gcclibcxx_demangle_callback
0006c2e4 T ___cxa_demangle
0006bd94 t _d_demangle_callback.constprop.17
0006b9f0 t _d_maybe_print_fold_expression.isra.15
0006b89c t _d_print_subexpr
0006b7c8 t _d_print_expr_op
0006b490 t _d_print_function_type.isra.11
0006b1ac t _d_print_array_type.isra.10
0006ada4 t _d_print_mod_list
0006a49c t _d_print_mod
0006a454 t _d_print_comp
000664b4 t _d_print_comp_inner
000662cc t _d_expr_primary
00065aa8 t _d_encoding
000659f8 t _d_function_type
0006596c t _d_bare_function_type
0006547c t _d_unqualified_name
0006535c t _d_parmlist
00065168 t _d_operator_name
000644e4 t _d_type
00063e9c t _d_name
00063e64 t _d_template_args
00063d14 t _d_template_args_1
000635fc t _d_expression_1
00062d98 t _d_exprlist
00062cc4 t _d_append_num
00062bcc t _d_growable_string_callback_adapter
000629f4 t _d_find_pack
00062964 t _d_lookup_template_argument.isra.6
000628a4 t _d_call_offset
000625c0 t _d_substitution
00062540 t _d_abi_tags
000623bc t _d_source_name
0006230c t _d_template_param
0006227c t _d_compact_number
000621fc t _d_number_component
00062154 t _d_number.isra.0
000620a8 t _d_append_buffer
00061eb8 t _d_count_templates_scopes
00061e40 t _d_ref_qualifier
00061c88 t _d_cv_qualifiers
00061aac t _d_make_comp
00061aa0 T __ZN10__cxxabiv117__class_type_infoD2Ev
00061990 T __ZNK10__cxxabiv117__class_type_info12__do_dyncastEiNS0_10__sub_kindEPKS0_PKvS3_S5_RNS0_16__dyncast_resultE
000618ec T __ZNK10__cxxabiv117__class_type_info10__do_catchEPKSt9type_infoPPvj
0006187c T __ZNK10__cxxabiv117__class_type_info11__do_upcastEPKS0_PKvRNS0_15__upcast_resultE
00061830 T __ZN10__cxxabiv117__class_type_infoD0Ev
00061804 T __ZN10__cxxabiv117__class_type_infoD1Ev
000617e4 T __ZNK10__cxxabiv117__class_type_info20__do_find_public_srcEiPKvPKS0_S2_
0006176c T __ZNK10__cxxabiv117__class_type_info11__do_upcastEPKS0_PPv
00061760 T __ZNSt9bad_allocD2Ev
00061714 T __ZNSt9bad_allocD0Ev
000616e8 T __ZNSt9bad_allocD1Ev
000616c4 T __ZNKSt9bad_alloc4whatEv
00061580 T _strverscmp
00061540 T _xvasprintf
000614e8 T _xstrndup
00061480 T _xstrerror
00061440 T _xstrdup
00061400 T _xmemdup
000613a4 T _xrealloc
00061344 T _xcalloc
000612fc T _xmalloc
00061264 T _xmalloc_failed
00061208 T _xmalloc_set_program_name
000611d4 T _xexit
000610ec T _stack_limit_increase
00060e2c T _libiberty_vprintf_buffer_size
00060e20 T _pex_init
00060ab4 t _pex_unix_exec_child
000609ec t _pex_unix_wait
000609e0 t _pex_unix_open_read
000609c0 t _pex_unix_open_write
000609b8 t _pex_unix_close
000609b0 t _pex_unix_pipe
000609a0 t _pex_unix_fdopenr
0006093c t _pex_unix_fdopenw
00060938 t _pex_unix_cleanup
000607f0 T _pex_free
0006074c T _pex_get_times
000606bc T _pex_get_status
0006065c T _pex_read_err
00060538 T _pex_read_output
00060424 T _pex_input_pipe
0006034c T _pex_input_file
00060338 T _pex_run
0005fe04 T _pex_run_in_environment
0005fd7c T _pex_init_common
0005fc78 t _temp_file.isra.2
0005fb60 t _pex_get_status_and_time
0005fb30 T __obstack_memory_used
0005fa70 T __obstack_free
0005fa34 T __obstack_allocated_p
0005f8c0 T __obstack_newchunk
0005f8a0 T __obstack_begin_1
0005f888 T __obstack_begin
0005f7d4 t __obstack_begin_worker
0005f7ac t _call_chunkfun
0005f778 t _print_and_abort
0005f670 T _make_temp_file
0005f4dc T _choose_tmpdir
0005f4d4 T _make_relative_prefix_ignore_links
0005f4cc T _make_relative_prefix
0005f050 t _make_relative_prefix_1
0005eec0 t _split_directories
0005ee5c t _free_split_directories
0005ee04 T _lrealpath
0005ee00 T _unix_lbasename
0005edbc T _lbasename
0005ed2c T _dos_lbasename
0005ed28 T _hex_init
0005ea7c T _iterative_hash
0005ea44 T _htab_hash_string
0005e9f4 T _htab_collisions
0005e95c T _htab_traverse
0005e8f4 T _htab_traverse_noresize
0005e868 T _htab_clear_slot
0005e820 T _htab_remove_elt
0005e7b8 T _htab_remove_elt_with_hash
0005e768 T _htab_find_slot
0005e518 T _htab_find_slot_with_hash
0005e4d0 T _htab_find
0005e354 T _htab_find_with_hash
0005e200 T _htab_empty
0005e110 T _htab_delete
0005e0f8 T _htab_try_create
0005e0e0 T _htab_create
0005e0c4 T _htab_set_functions_ex
0005e0b8 T _htab_create_alloc
0005dff0 T _htab_create_typed_alloc
0005df18 T _htab_create_alloc_ex
0005df08 T _htab_elements
0005df00 T _htab_size
0005dcb4 t _htab_expand
0005dbe8 t _higher_prime_index
0005db3c t _hash_pointer
0005db2c t _eq_pointer
0005db28 T _freopen_unlocked
0005db24 T _fdopen_unlocked
0005db20 T _fopen_unlocked
0005db1c T _unlock_std_streams
0005db18 T _unlock_stream
0005da44 T _canonical_filename_eq
0005d9dc T _filename_eq
0005d974 T _filename_hash
0005d924 T _filename_ncmp
0005d8c8 T _filename_cmp
0005d7f4 T _reconcat
0005d730 T _concat
0005d6a8 T _concat_copy2
0005d620 T _concat_copy
0005d5ac T _concat_length
0005d574 T _countargv
0005d2ec T _expandargv
0005d218 T _writeargv
0005cfe8 T _buildargv
0005cf84 T _freeargv
0005cecc T _dupargv
0005cdbc T _md5_stream
0005cd40 T _md5_buffer
0005cbd4 T _md5_process_bytes
0005cb00 T _md5_finish_ctx
0005c190 T _md5_process_block
0005c15c T _md5_read_ctx
0005c118 T _md5_init_ctx
0005c0d0 T _is_gnu_v3_mangled_dtor
0005c088 T _is_gnu_v3_mangled_ctor
0005c078 T _java_demangle_v3_callback
0005c050 T _java_demangle_v3
0005c04c T _cplus_demangle_v3_callback
0005c028 T _cplus_demangle_v3
0005bfe4 T _cplus_demangle_init_info
0005bef4 T _cplus_demangle_print
0005be6c t _d_demangle
0005bbb4 t _d_demangle_callback
0005ba80 T _cplus_demangle_print_callback
0005b914 t _is_ctor_or_dtor
0005b750 t _d_expr_primary
0005b55c T _cplus_demangle_mangled_name
0005ad40 t _d_encoding
0005a700 t _d_name
0005a6d4 t _d_template_args
0005a584 t _d_template_args_1
00059e94 t _d_expression_1
00059638 t _d_exprlist
00059588 t _d_function_type
000594f4 t _d_bare_function_type
0005900c t _d_unqualified_name
00058edc t _d_parmlist
00058ce0 t _d_operator_name
00058034 T _cplus_demangle_type
00057ff8 T _cplus_demangle_fill_dtor
00057fbc T _cplus_demangle_fill_ctor
00057f84 T _cplus_demangle_fill_extended_operator
00057f4c T _cplus_demangle_fill_name
00057bb8 t _d_maybe_print_fold_expression.isra.13
00057a64 t _d_print_subexpr
00057990 t _d_print_expr_op
00057658 t _d_print_function_type.isra.9
0005737c t _d_print_array_type.isra.8
00056f7c t _d_print_mod_list
0005667c t _d_print_mod
00056634 t _d_print_comp
0005269c t _d_print_comp_inner
000525d0 t _d_append_num
000524d8 t _d_growable_string_callback_adapter
000522f8 t _d_find_pack
00052278 t _d_lookup_template_argument.isra.6
000521b0 t _d_call_offset
00051ed0 t _d_substitution
00051e50 t _d_abi_tags
00051cd4 t _d_source_name
00051c24 t _d_template_param
00051b94 t _d_compact_number
00051b14 t _d_number_component
00051a74 t _d_number.isra.0
000519c8 t _d_append_buffer
000517e0 t _d_count_templates_scopes
00051778 t _d_ref_qualifier
000515c0 t _d_cv_qualifiers
00051400 t _d_make_comp
0005139c T _xregfree
00051300 T _xregerror
00051128 T _xregexec
00050f70 T _xregcomp
00050f10 T _xre_exec
00050e28 T _xre_comp
00050db8 T _xre_compile_pattern
00050db4 T _xre_match_2
00050d94 T _xre_match
00050d90 T _xre_search_2
00050d50 T _xre_search
00050d14 T _xre_set_registers
00050d10 T _xre_compile_fastmap
00050cf8 T _xre_set_syntax
0004dd38 t _byte_regex_compile
0004d9ec t _byte_re_search_2
0004ba00 t _byte_re_match_2_internal
0004b588 t _byte_re_compile_fastmap
0004b418 t _byte_group_match_null_string_p
0004b37c t _byte_alt_match_null_string_p
0004b1d8 t _byte_common_op_match_null_string_p
0004b110 t _byte_compile_range
0004b0b0 T _backtrace_vector_release
0004b094 T _backtrace_vector_finish
0004af8c T _backtrace_vector_grow
0004adc4 T _backtrace_alloc
0004acf4 T _backtrace_free
0004acd8 T _backtrace_initialize
0004acbc t _unknown_fileline
0004ac00 T _backtrace_full
0004ab34 t _unwind
0004aac4 T _backtrace_create_state
0004aa54 T _backtrace_close
0004a990 T _backtrace_open
0004a90c T _backtrace_syminfo
0004a888 T _backtrace_pcinfo
0004a6b8 t _fileline_initialize
0004a548 T __cpp_expansions_different_trad
0004a270 T __cpp_create_trad_definition
0004a1a4 T __cpp_copy_replacement_text
0004a12c T __cpp_replacement_text_len
0004a09c T __cpp_read_logical_line_trad
000491b8 T __cpp_scan_out_logical_line
00049188 T __cpp_remove_overlay
0004914c T __cpp_overlay_buffer
0004909c t __ZL15recursive_macroP10cpp_readerP12cpp_hashnode
00049028 t __ZL14lex_identifierP10cpp_readerPKh
00048f70 t __ZL21push_replacement_textP10cpp_readerP12cpp_hashnode
00048f08 t __ZL19check_output_bufferP10cpp_readerm
00048df4 t __ZL21save_replacement_textP10cpp_readerP9cpp_macroj
00048d40 t __ZL15skip_whitespaceP10cpp_readerPKhi
00048bb8 t __ZL12copy_commentP10cpp_readerPKhi
00048ab4 t __ZL17canonicalize_textPhPKhmS_
00048720 T __Z18ht_dump_statisticsP2ht
000486b4 T __Z7ht_loadP2htPP13ht_identifierjjb
0004862c T __Z8ht_purgeP2htPFiP10cpp_readerP13ht_identifierPKvES6_
000485b8 T __Z9ht_forallP2htPFiP10cpp_readerP13ht_identifierPKvES6_
0004857c T __Z9ht_lookupP2htPKhm16ht_lookup_option
00048230 T __Z19ht_lookup_with_hashP2htPKhmj16ht_lookup_option
000481e8 T __Z10ht_destroyP2ht
00048174 T __Z9ht_createj
00047fcc T __Z12deps_restoreP4depsP7__sFILEPKc
00047f04 T __Z9deps_saveP4depsP7__sFILE
00047db8 T __Z18deps_phony_targetsPK4depsP7__sFILE
00047b04 T __Z10deps_writePK4depsP7__sFILEj
000479fc T __Z14deps_add_vpathP4depsPKc
00047960 T __Z12deps_add_depP4depsPKc
00047884 T __Z23deps_add_default_targetP4depsPKc
000477d4 T __Z15deps_add_targetP4depsPKci
000476e0 T __Z9deps_freeP4deps
000476d4 T __Z9deps_initv
000474e4 t __ZL5mungePKc
000473c4 t __ZL11apply_vpathP4depsPKc
00046fc8 T __Z20cpp_macro_definitionP10cpp_readerP12cpp_hashnode
00046f8c T __Z20cpp_fun_like_macro_pP12cpp_hashnode
00046478 T __cpp_create_definition
00046324 T __cpp_save_parameter
00046308 T __cpp_free_definition
00046304 T __Z27cpp_get_token_with_locationP10cpp_readerPj
0004624c T __Z17cpp_scan_nooutputP10cpp_reader
00046244 T __Z13cpp_get_tokenP10cpp_reader
00045cc8 t __ZL15cpp_get_token_1P10cpp_readerPj
000444bc t __ZL19enter_macro_contextP10cpp_readerP12cpp_hashnodePK9cpp_tokenj
000442e8 t __ZL12paste_tokensP10cpp_readerjPPK9cpp_tokenS3_
000441c8 T __Z18_cpp_backup_tokensP10cpp_readerj
00044174 T __cpp_backup_tokens_direct
0004412c T __Z15cpp_sys_macro_pP10cpp_reader
00043ff8 T __cpp_pop_context
00043f9c T __cpp_push_text_context
00043de4 t __ZL13builtin_macroP10cpp_readerP12cpp_hashnodejj
00043d2c T __cpp_push_token_context
00043c14 T __cpp_arguments_ok
00043bcc T __Z16cpp_quote_stringPhPKhj
00043784 T __cpp_builtin_macro_text
00043740 T __cpp_warn_if_unused_macro
000436c4 t __cpp_warn_if_unused_macro.part.17
00043478 t __ZL19lex_expansion_tokenP10cpp_readerP9cpp_macro
00043400 t __ZL21alloc_expansion_tokenP10cpp_readerP9cpp_macro.isra.13
0004335c t __ZL21tokens_buff_add_tokenP9_cpp_buffPjPK9cpp_tokenjjPK14line_map_macroj
000432bc t __ZL28push_extended_tokens_contextP10cpp_readerP12cpp_hashnodeP9_cpp_buffPjPPK9cpp_tokenj
00043238 t __ZL12next_contextP10cpp_reader.isra.10
00043230 T __ZN12fixit_removeD0Ev
00043228 T __ZNK13fixit_replace8get_kindEv
00043220 T __ZNK12fixit_remove8get_kindEv
0004321c T __ZN12fixit_removeD1Ev
00043214 T __ZNK12fixit_insert8get_kindEv
00043210 T __ZN13fixit_replaceD2Ev
0004320c T __ZN13fixit_replaceC2E12source_rangePKc
000431a0 T __ZN13rich_location17add_fixit_replaceE12source_rangePKc
00043144 T __ZN13fixit_replaceC1E12source_rangePKc
00043128 T __ZN12fixit_removeC1E12source_range
0004310c T __ZN12fixit_removeC2E12source_range
00043108 T __ZN12fixit_insertD2Ev
00043104 T __ZN12fixit_insertC2EjPKc
000430ac T __ZN12fixit_insertC1EjPKc
00043048 T __ZN13rich_location16add_fixit_removeE12source_range
00042fcc T __ZN13rich_location16add_fixit_insertEjPKc
00042f8c T __ZN13rich_location9set_rangeEP9line_mapsjjb
00042f6c T __ZN13rich_location9add_rangeEjb
00042f5c T __ZN13rich_location15override_columnEi
00042e78 T __ZN13rich_location21get_expanded_locationEj
00042e68 T __ZNK13rich_location7get_locEj
00042e64 T __ZN13rich_locationD2Ev
00042e00 T __ZN13rich_locationD1Ev
00042ddc T __ZN13rich_locationC1EP9line_mapsj
00042db8 T __ZN13rich_locationC2EP9line_mapsj
00042db0 T __ZN13fixit_replace14affects_line_pEPKci
00042da8 T __ZN12fixit_remove14affects_line_pEPKci
00042d24 T __ZNK12source_range17intersects_line_pEPKci
00042ba8 T __Z15line_table_dumpP7__sFILEP9line_mapsjj
00042a98 T __Z22linemap_get_statisticsP9line_mapsP13linemap_stats
000429d0 T __Z33linemap_get_file_highest_locationP9line_mapsPKcPj
0004289c T __Z21linemap_dump_locationP9line_mapsjP7__sFILE
00042680 T __Z12linemap_dumpP7__sFILEP9line_mapsjb
00042560 T __Z23linemap_expand_locationP9line_mapsPK8line_mapj
00042438 T __Z40linemap_unwind_to_first_non_reserved_locP9line_mapsjPPK8line_map
00042384 T __Z31linemap_unwind_toward_expansionP9line_mapsjPPK8line_map
00042134 T __Z25linemap_compare_locationsP9line_mapsjj
00041f84 T __Z35linemap_position_for_loc_and_offsetP9line_mapsjj
00041e30 T __Z24linemap_resolve_locationP9line_mapsj24location_resolution_kindPPK17line_map_ordinary
00041dec T __Z39linemap_location_from_macro_expansion_pPK9line_mapsj
00041d10 T __Z35linemap_location_in_system_header_pP9line_mapsj
00041d04 T __Z26linemap_map_get_macro_namePK14line_map_macro
00041ca8 T _linemap_get_expansion_filename
00041c38 T _linemap_get_expansion_line
00041c08 T __Z44linemap_macro_map_loc_unwind_toward_spellingP9line_mapsPK14line_map_macroj
00041be4 T __Z29linemap_macro_expansion_map_pPK8line_map
00041b70 t __ZL30linemap_macro_loc_to_exp_pointP9line_mapsjPPK17line_map_ordinary
00041b0c T __Z15pure_location_pP9line_mapsj
00041a18 T __Z18get_range_from_locP9line_mapsj
00041764 T __Z22get_combined_adhoc_locP9line_mapsj12source_rangePv
000415b8 T __Z14linemap_lookupP9line_mapsj
00041530 T __Z36linemap_position_for_line_and_columnP9line_mapsPK17line_map_ordinaryjj
0004145c T __Z27linemap_position_for_columnP9line_mapsj
00041200 T __Z18linemap_line_startP9line_mapsjj
000411e4 T _linemap_add_macro_token
00041104 T _linemap_enter_macro
000410f4 T __Z37linemap_tracks_macro_expansion_locs_pP9line_maps
00040d60 T __Z11linemap_addP9line_maps9lc_reasonjPKcj
00040cd4 T __Z26linemap_check_files_exitedP9line_maps
00040c6c T __Z12linemap_initP9line_mapsj
00040c64 T __Z24location_adhoc_data_finiP9line_maps
00040c54 T __Z27get_location_from_adhoc_locP9line_mapsj
00040c40 T __Z23get_data_from_adhoc_locP9line_mapsj
00040bbc T __Z27rebuild_location_adhoc_htabP9line_maps
00040b84 T __ZN13fixit_replaceD0Ev
00040b7c T __ZN13fixit_replaceD1Ev
00040b44 T __ZN12fixit_insertD0Ev
00040b3c T __ZN12fixit_insertD1Ev
00040ad0 T __ZN12fixit_insert14affects_line_pEPKci
000408d8 t __ZL11new_linemapP9line_maps9lc_reason
000408bc t __ZL26location_adhoc_data_updatePPvS_
00040864 t __ZL22location_adhoc_data_eqPKvS0_
00040844 t __ZL24location_adhoc_data_hashPKv
00040838 T __Z32cpp_stop_forcing_token_locationsP10cpp_reader
00040830 T __Z25cpp_force_token_locationsP10cpp_readerPj
000407a4 T __Z19cpp_token_val_indexPK9cpp_token
0004073c T __cpp_aligned_alloc
00040618 T __Z14cpp_peek_tokenP10cpp_readeri
000404b0 T __cpp_lex_token
0003f1fc T __cpp_lex_direct
0003f0a0 t __ZL10lex_numberP10cpp_readerP10cpp_stringP15normalize_state.constprop.13
0003efd8 T __Z17cpp_token_as_textP10cpp_readerPK9cpp_token
0003e068 t __ZL10lex_stringP10cpp_readerP9cpp_tokenPKh
0003e014 t __ZL14create_literalP10cpp_readerP9cpp_tokenPKhj9cpp_ttype
0003dfac T __cpp_unaligned_alloc
0003df64 T __cpp_free_buff
0003df08 T __cpp_extend_buff
0003de48 t __ZL14bufring_appendP10cpp_readerPKhmPP9_cpp_buffS5_
0003dde8 T __cpp_append_extend_buff
0003dd24 T __cpp_get_buff
0003dcfc T __cpp_release_buff
0003dbb0 T __Z25cpp_output_line_to_stringP10cpp_readerPKh
0003dab8 T __Z15cpp_output_lineP10cpp_readerP7__sFILE
0003d544 T __Z15cpp_avoid_pasteP10cpp_readerPK9cpp_tokenS3_
0003d428 T __cpp_equiv_tokens
0003d2bc T __Z16cpp_output_tokenPK9cpp_tokenP7__sFILE
0003d278 T __Z13cpp_type2name9cpp_ttypeh
0003d158 t __ZL24warn_about_normalizationP10cpp_readerPK9cpp_tokenPK15normalize_state.isra.11.part.12
0003cfdc T __Z15cpp_spell_tokenP10cpp_readerPK9cpp_tokenPhb
0003cf50 T __cpp_spell_ident_ucns
0003cf0c T __Z13cpp_token_lenPK9cpp_token
0003cef4 T __cpp_get_fresh_line
0003cd98 T __cpp_temp_token
0003cd38 T __cpp_remaining_tokens_num_in_context
0003ccf0 T __cpp_init_tokenrun
0003cce8 T __Z16cpp_get_commentsP10cpp_reader
0003cb94 T __cpp_lex_identifier
0003ca10 T __cpp_skip_block_comment
0003c79c T __cpp_process_line_notes
0003c6c0 t __cpp_get_fresh_line.part.10
0003c160 T __cpp_clean_line
0003c15c T __cpp_init_lexer
0003c118 T __Z8cpp_ideqPK9cpp_tokenPKc
0003c058 t __ZL8is_macroP10cpp_readerPKh.isra.6
0003bf60 t __ZL11utf8_to_ucnPhPKh
0003bd00 t __ZL14lex_identifierP10cpp_readerPKhbP15normalize_statePP12cpp_hashnode
0003bc10 t __ZL18forms_identifier_pP10cpp_readeriP15normalize_state
0003bba0 t __ZL13next_tokenrunP8tokenrun
0003baf4 t __ZL13add_line_noteP10cpp_bufferPKhj
0003ba24 T __Z10cpp_finishP10cpp_readerP7__sFILE
0003b8e4 T __Z18cpp_read_main_fileP10cpp_readerPKc
0003b798 T __Z16cpp_post_optionsP10cpp_reader
0003b580 T __Z17cpp_init_builtinsP10cpp_readeri
0003b484 T __Z25cpp_init_special_builtinsP10cpp_reader
0003b448 T _cpp_named_operator2name
0003b2b4 T __Z11cpp_destroyP10cpp_reader
0003b2ac T __Z16cpp_set_line_mapP10cpp_readerP9line_maps
0003b074 T __Z17cpp_create_reader6c_langP2htP9line_maps
0003afe4 T __Z12cpp_set_langP10cpp_reader6c_lang
0003aec0 t __ZL23read_original_directoryP10cpp_reader
0003aeb8 T __Z22cpp_forall_identifiersP10cpp_readerPFiS0_P12cpp_hashnodePvES3_
0003ae60 T __Z11cpp_definedP10cpp_readerPKhi
0003ae54 T __Z10cpp_lookupP10cpp_readerPKhj
0003ae10 T __cpp_destroy_hashtable
0003acd0 T __cpp_init_hashtable
0003abfc t __ZL10alloc_nodeP2ht
0003aba4 T __cpp_has_header
0003aaf8 T __cpp_read_file_entries
0003a92c T __cpp_save_file_entries
0003a924 T __Z12cpp_get_prevP10cpp_buffer
0003a91c T __Z12cpp_get_fileP10cpp_buffer
0003a914 T __Z14cpp_get_bufferP10cpp_reader
0003a90c T __Z11cpp_get_dirP9_cpp_file
0003a904 T __Z12cpp_get_pathP9_cpp_file
0003a884 T __Z22cpp_set_include_chainsP10cpp_readerP7cpp_dirS2_i
0003a87c T __cpp_get_file_stat
0003a874 T __cpp_get_file_name
0003a818 T __cpp_pop_file_buffer
0003a80c T __Z24cpp_push_default_includeP10cpp_readerPKc
0003a800 T __Z16cpp_push_includeP10cpp_readerPKc
0003a75c T __cpp_compare_file_date
0003a650 T __cpp_report_missing_guards
0003a644 T __Z15cpp_change_fileP10cpp_reader9lc_reasonPKc
0003a574 T __Z22cpp_make_system_headerP10cpp_readerii
0003a558 T __cpp_fake_include
0003a51c T __Z20cpp_clear_file_cacheP10cpp_reader
0003a47c T __cpp_cleanup_files
0003a390 T __cpp_init_files
0003a2e0 T __Z19cpp_included_beforeP10cpp_readerPKcj
0003a24c T __Z12cpp_includedP10cpp_readerPKc
0003a108 T __cpp_stack_include
0003a0f8 T __cpp_mark_file_once_only
00039cc0 T __cpp_stack_file
00039438 T __cpp_find_file
00039428 T __cpp_find_failed
000392d4 t __ZL16search_path_headP10cpp_readerPKci12include_type
000390c4 t __ZL9read_fileP10cpp_readerP9_cpp_file
00039018 t __ZL12pchf_comparePKvS0_
00038d74 t __ZL13read_name_mapP7cpp_dir
00038cc4 t __ZL18append_file_to_dirPKcP7cpp_dir.isra.3
00038cbc t __ZL17pchf_save_comparePKvS0_
00038ba0 t __ZL16open_file_failedP10cpp_readerP9_cpp_filei
00038a3c t __ZL12validate_pchP10cpp_readerP9_cpp_filePKc
0003895c t __ZL9open_fileP9_cpp_file
00038950 t __ZL24report_missing_guard_cmpPKvS0_
00038804 t __ZL20read_filename_stringiP7__sFILE
0003871c t __ZL12make_cpp_dirP10cpp_readerPKci
000386a4 t __ZL19new_file_hash_entryP10cpp_reader
00038648 t __ZL12file_hash_eqPKvS0_
00038620 t __ZL24nonexistent_file_hash_eqPKvS0_
00038564 t __ZL20report_missing_guardPPvS_
00038544 t __ZL14file_hash_hashPKv
000383fc T __Z19cpp_num_sign_extend7cpp_numm
000360f0 T __cpp_parse_expr
000360a0 T __cpp_expand_op_stack
00035a20 T __Z21cpp_interpret_integerP10cpp_readerPK9cpp_tokenj
00035094 T __Z19cpp_classify_numberP10cpp_readerPK9cpp_tokenPPKcj
00034fdc T __Z22cpp_get_userdef_suffixPK9cpp_token
00034fc8 T __Z18cpp_userdef_char_p9cpp_ttype
00034fb4 T __Z20cpp_userdef_string_p9cpp_ttype
00034f68 T __Z25cpp_userdef_char_add_type9cpp_ttype
00034f1c T __Z28cpp_userdef_char_remove_type9cpp_ttype
00034ed0 T __Z27cpp_userdef_string_add_type9cpp_ttype
00034e84 T __Z30cpp_userdef_string_remove_type9cpp_ttype
00034e7c T __Z24cpp_interpret_int_suffixP10cpp_readerPKcm
00034e74 T __Z26cpp_interpret_float_suffixP10cpp_readerPKcm
00034770 t __ZL13num_binary_opP10cpp_reader7cpp_numS1_9cpp_ttype
000344dc t __ZL10num_lshift7cpp_nummm.isra.10
00034104 t __ZL10num_rshift7cpp_nummm.isra.9
00033fc0 t __ZL14num_greater_eq7cpp_numS_m.isra.5
00033e38 t __ZL10num_negate7cpp_numm.isra.4
00033c90 t __ZL20interpret_int_suffixP10cpp_readerPKhm.isra.1
00033740 t __ZL22interpret_float_suffixP10cpp_readerPKhm.isra.0
00033574 t __ZL17parse_has_includeP10cpp_reader12include_type
0003349c t __ZL12num_part_mulyy
00033430 T __Z18cpp_errno_filenameP10cpp_readeriPKc
000333dc T __Z9cpp_errnoP10cpp_readeriPKc
0003338c T __Z28cpp_warning_with_line_syshdrP10cpp_readerijjPKcz
0003333c T __Z24cpp_pedwarning_with_lineP10cpp_readerijjPKcz
000332ec T __Z21cpp_warning_with_lineP10cpp_readerijjPKcz
000332a0 T __Z19cpp_error_with_lineP10cpp_readerijjPKcz
00033250 T __Z18cpp_warning_syshdrP10cpp_readeriPKcz
00033200 T __Z14cpp_pedwarningP10cpp_readeriPKcz
000331b0 T __Z11cpp_warningP10cpp_readeriPKcz
00033164 T __Z9cpp_errorP10cpp_readeriPKcz
000330b4 t __ZL24cpp_diagnostic_with_lineP10cpp_readeriijjPKcPPc
00032fd4 t __ZL14cpp_diagnosticP10cpp_readeriiPKcPPc
00032fd0 T __cpp_bracket_include
00032f58 T __cpp_init_directives
00032f50 T __Z12cpp_unassertP10cpp_readerPKc
00032f48 T __Z10cpp_assertP10cpp_readerPKc
00032e6c t __ZL16handle_assertionP10cpp_readerPKci
00032df0 T __Z9cpp_undefP10cpp_readerPKc
00032d74 T __cpp_define_builtin
00032d0c T __Z20cpp_define_formattedP10cpp_readerPKcz
00032c34 T __Z10cpp_defineP10cpp_readerPKc
00032b7c t __ZL13run_directiveP10cpp_readeriPKcm
00032afc T __cpp_do__Pragma
0003283c t __ZL19destringize_and_runP10cpp_readerPK10cpp_stringj
000324ec t __ZL19do_pragma_pop_macroP10cpp_reader
000323e4 T __cpp_pop_buffer
000322e8 T __Z15cpp_push_bufferP10cpp_readerPKhmi
00032298 T __Z12cpp_get_depsP10cpp_reader
00032270 T __Z17cpp_set_callbacksP10cpp_readerP13cpp_callbacks
00032268 T __Z17cpp_get_callbacksP10cpp_reader
00032260 T __Z15cpp_get_optionsP10cpp_reader
000321bc T __cpp_test_assertion
00032184 T __cpp_restore_pragma_names
00032138 T __cpp_save_pragma_names
00031fd0 T __cpp_init_internal_pragmas
00031f84 T __Z28cpp_register_deferred_pragmaP10cpp_readerPKcS2_jbb
00031f1c T __Z19cpp_register_pragmaP10cpp_readerPKcS2_PFvS0_Eb
00031cf0 t __ZL7do_lineP10cpp_reader
00031940 t __ZL13do_linemarkerP10cpp_reader
000318bc T __cpp_do_file_change
000318ac T __Z13cpp_undef_allP10cpp_reader
00031414 T __cpp_handle_directive
000311b8 t __ZL17register_pragma_1P10cpp_readerPKcS2_b
0003113c t __ZL8do_errorP10cpp_reader
00031034 t __ZL20do_pragma_dependencyP10cpp_reader
00030fb8 t __ZL10do_warningP10cpp_reader
00030f50 t __ZL23do_pragma_system_headerP10cpp_reader
00030e64 t __ZL7do_elifP10cpp_reader
00030e5c t __ZL17do_pragma_warningP10cpp_reader
00030e54 t __ZL15do_pragma_errorP10cpp_reader
00030d80 t __ZL26do_pragma_warning_or_errorP10cpp_readerb
00030cc8 t __ZL11do_unassertP10cpp_reader
00030bdc t __ZL7do_elseP10cpp_reader
000309bc t __ZL20do_pragma_push_macroP10cpp_reader
000308f8 t __ZL13end_directiveP10cpp_readeri
000308f0 t __ZL10do_includeP10cpp_reader
00030884 t __ZL15do_include_nextP10cpp_reader
0003087c t __ZL9do_importP10cpp_reader
00030764 t __ZL17do_include_commonP10cpp_reader12include_type
000306f0 t __ZL17skip_rest_of_lineP10cpp_reader
0003065c t __ZL14do_pragma_onceP10cpp_reader
0003056c t __ZL8do_endifP10cpp_reader
00030408 t __ZL8do_ifdefP10cpp_reader
0003029c t __ZL9do_ifndefP10cpp_reader
00030168 t __ZL8do_undefP10cpp_reader
0002ff0c t __ZL13parse_includeP10cpp_readerPiPPPK9cpp_tokenPj
0002fe04 t __ZL9do_assertP10cpp_reader
0002fd64 t __ZL8do_identP10cpp_reader
0002fcd4 t __ZL11check_eol_1P10cpp_readerbi
0002fbe0 t __ZL18get__Pragma_stringP10cpp_reader
0002fb40 t __ZL23save_registered_pragmasP12pragma_entryPPc
0002fa74 t __ZL26restore_registered_pragmasP10cpp_readerP12pragma_entryPPc
0002f968 t __ZL22prepare_directive_tradP10cpp_reader
0002f8bc t __ZL9do_defineP10cpp_reader
0002f870 t __ZL5do_ifP10cpp_reader
0002f73c t __ZL16push_conditionalP10cpp_readeriiPK12cpp_hashnode
0002f418 t __ZL9do_pragmaP10cpp_reader
0002f338 t __ZL16glue_header_nameP10cpp_reader
0002f294 t __ZL11find_answerP12cpp_hashnodePK6answer
0002f000 t __ZL15parse_assertionP10cpp_readerPP6answeri
0002ef34 t __ZL16do_pragma_poisonP10cpp_reader
0002ee64 t __ZL9read_flagP10cpp_readerj
0002ed1c t __ZL14lex_macro_nodeP10cpp_readerb
0002ecac t __ZL24count_registered_pragmasP12pragma_entry
0002ec8c t __ZL15undefine_macrosP10cpp_readerP12cpp_hashnodePv
0002ec80 T __cpp_default_encoding
0002ea64 T __cpp_convert_input
0002e7f8 T __cpp_interpret_identifier
0002e420 T __Z23cpp_interpret_charconstP10cpp_readerPK9cpp_tokenPjPi
0002e3a4 T __Z32cpp_interpret_string_notranslateP10cpp_readerPK10cpp_stringmPS1_9cpp_ttype
0002d9d4 T __Z20cpp_interpret_stringP10cpp_readerPK10cpp_stringmPS1_9cpp_ttype
0002a140 T __cpp_valid_ucn
0002a014 T __Z24cpp_host_to_exec_charsetP10cpp_readerj
00029f60 T __cpp_destroy_iconv
00029d58 T __Z14cpp_init_iconvP10cpp_reader
00029b24 t __ZL18convert_utf32_utf8PvPKhmP11_cpp_strbuf
000298c0 t __ZL18convert_utf16_utf8PvPKhmP11_cpp_strbuf
00029668 t __ZL18convert_utf8_utf32PvPKhmP11_cpp_strbuf
000293bc t __ZL18convert_utf8_utf16PvPKhmP11_cpp_strbuf
00029260 t __ZL19emit_numeric_escapeP10cpp_readerjP11_cpp_strbuf14cset_converter.isra.2
000291b8 t __ZL21convert_no_conversionPvPKhmP11_cpp_strbuf
00029028 t __ZL19convert_using_iconvPvPKhmP11_cpp_strbuf
00028e78 t __ZL15init_iconv_descP10cpp_readerPKcS2_
00028d9c t __ZL18converter_for_typeP10cpp_reader9cpp_ttype
00028d74 T __Z26mempool_obstack_chunk_freePv
00028d44 T __Z27mempool_obstack_chunk_allocm
00028cfc T __ZN17memory_block_pool15clear_free_listEv
00028cf0 T __ZN17memory_block_poolC1Ev
00028ce4 T __ZN17memory_block_poolC2Ev
000287cc T __Z18dump_location_infoP7__sFILE
00028338 T __Z26dump_line_table_statisticsv
000282d0 T __Z44expansion_point_location_if_in_system_headerj
000282a0 T __Z33expand_location_to_spelling_pointj
0002826c T __Z48linemap_client_expand_location_to_spelling_pointj
00028238 T __Z15expand_locationj
000281f0 T __Z30is_location_from_builtin_tokenj
00027da4 T __Z24location_get_source_linePKciPi
00027da0 T __ZN6fcacheD2Ev
00027d20 T __Z26diagnostic_file_cache_finiv
00027c94 T __ZN6fcacheD1Ev
00027c90 T __ZN6fcacheC2Ev
00027c60 T __ZN6fcacheC1Ev
00027868 t __ZL13get_next_lineP6fcachePPcPl
000277f0 t __ZL26diagnostic_file_cache_initv.part.15
0002773c t __ZL15write_digit_rowP7__sFILEiPK17line_map_ordinaryjii
000276dc t __ZL28dump_labelled_location_rangeP7__sFILEPKcjj
000275d0 t __ZL17expand_location_1jb
000274cc t __ZL15maybe_read_dataP6fcache
00027484 T __Z10get_spacesPKc
00027474 T __Z13fake_ngettextPKcS0_m
000272b0 T __Z20identifier_to_localePKc
0002727c T __Z16pp_separate_withP14pretty_printerc
0002721c T __Z21pp_newline_and_indentP14pretty_printeri
000271b8 T __Z20pp_newline_and_flushP14pretty_printer
00027174 T __Z14pp_maybe_spaceP14pretty_printer
000270fc T __Z9pp_printfP14pretty_printerPKcz
0002708c T __Z11pp_verbatimP14pretty_printerPKcz
00027040 T __Z18pp_format_verbatimP14pretty_printerP9text_info
00026f68 T __Z24pp_output_formatted_textP14pretty_printer
00025bd8 T __Z9pp_formatP14pretty_printerP9text_info
00025a60 T __Z9pp_stringP14pretty_printerPKc
00025918 T __Z14pp_append_textP14pretty_printerPKcS2_
000257bc T __Z14pp_emit_prefixP14pretty_printer
00025774 T __Z9pp_indentP14pretty_printer
000256b8 T __Z12pp_characterP14pretty_printeri
00025614 T __Z10pp_newlineP14pretty_printer
00025600 T __Z37pp_remaining_character_count_for_lineP14pretty_printer
000255d8 T __Z24pp_last_position_in_textPK14pretty_printer
00025548 T __Z17pp_formatted_textP14pretty_printer
00025544 T __ZN14pretty_printerD2Ev
00025540 T __ZN14pretty_printerC2EPKci
000254ac T __ZN14pretty_printerC1EPKci
00025468 T __Z17pp_destroy_prefixP14pretty_printer
0002542c T __Z13pp_set_prefixP14pretty_printerPKc
000252dc T __Z36pp_write_text_as_dot_label_to_streamP14pretty_printerb
0002528c T __Z8pp_flushP14pretty_printer
0002524c T __Z15pp_really_flushP14pretty_printer
00025198 T __Z23pp_write_text_to_streamP14pretty_printer
00025128 T __Z20pp_clear_output_areaP14pretty_printer
00025120 T __Z26pp_set_line_maximum_lengthP14pretty_printeri
0002511c T __ZN13output_bufferD2Ev
000250e0 T __ZN13output_bufferD1Ev
000250dc T __ZN13output_bufferC2Ev
0002501c T __ZN13output_bufferC1Ev
00025004 T __ZNK9text_info12get_locationEj
00024fe4 T __ZN9text_info12set_locationEjjb
00024fb0 T __ZN14pretty_printerD0Ev
00024f58 T __ZN14pretty_printerD1Ev
00024ebc t __ZL26pp_set_real_maximum_lengthP14pretty_printer
00024d70 t __ZL16decode_utf8_charPKhmPj
00023bc0 T __Z21diagnostic_show_locusP18diagnostic_contextPK15diagnostic_info
00023b44 t __ZN12_GLOBAL__N_16layout14move_to_columnEPii
00023a54 t __ZN12_GLOBAL__N_19colorizer9set_stateEi
000239fc t __ZN12_GLOBAL__N_19colorizer12finish_stateEi
00023838 t __ZN12_GLOBAL__N_16layout18get_state_at_pointEiiiiPNS_11point_stateE
000236f0 t __ZN12_GLOBAL__N_1L22compatible_locations_pEjj
000236cc t __ZN12_GLOBAL__N_19line_span10comparatorEPKvS2_
00023630 T __Z13colorize_init23diagnostic_color_rule_t
00023610 T __Z13colorize_stopb
0002357c T __Z14colorize_startbPKcm
000233c4 t __ZL16parse_gcc_colorsv
0002332c T __Z27internal_error_no_backtracePKcz
00023294 T __Z14internal_errorPKcz
00023208 T __Z11fatal_errorjPKcz
0002316c T __Z5sorryPKcz
00023108 T __Z17error_at_rich_locP13rich_locationPKcz
00023078 T __Z8error_atjPKcz
00022fc0 T __Z7error_njiPKcS0_z
00022f24 T __Z5errorPKcz
00022ea0 T __Z21permerror_at_rich_locP13rich_locationPKcz
00022dec T __Z9permerrorjPKcz
00022d50 T __Z7pedwarnjiPKcz
00022c94 T __Z9warning_njiiPKcS0_z
00022c20 T __Z19warning_at_rich_locP13rich_locationiPKcz
00022b84 T __Z10warning_atjiPKcz
00022adc T __Z7warningiPKcz
00022a24 T __Z8inform_njiPKcS0_z
000229c0 T __Z18inform_at_rich_locP13rich_locationPKcz
00022930 T __Z6informjPKcz
0002281c T __Z15emit_diagnostic12diagnostic_tjiPKcz
00022374 T __Z28diagnostic_report_diagnosticP18diagnostic_contextP15diagnostic_info
0002215c T __Z30diagnostic_action_after_outputP18diagnostic_context12diagnostic_t
00022084 T __Z22diagnostic_append_noteP18diagnostic_contextjPKcz
00022028 T __Z26default_diagnostic_starterP18diagnostic_contextP15diagnostic_info
00021f28 T __Z23diagnostic_build_prefixP18diagnostic_contextPK15diagnostic_info
00021ef8 T __Z19diagnostic_set_infoP15diagnostic_infoPKcPPcP13rich_location12diagnostic_t
00021e84 T __Z30diagnostic_set_info_translatedP15diagnostic_infoPKcPPcP13rich_location12diagnostic_t
00021e50 T __Z11fancy_abortPKciS0_
00021e14 T __Z7fnoticeP7__sFILEPKcz
00021dec T __Z10seen_errorv
00021d60 T __Z8verbatimPKcz
00021c5c T __Z13trim_filenamePKc
00021bd8 T __Z26diagnostic_pop_diagnosticsP18diagnostic_contextj
00021b80 T __Z27diagnostic_push_diagnosticsP18diagnostic_contextj
00021a28 T __Z30diagnostic_classify_diagnosticP18diagnostic_contexti12diagnostic_tj
00021828 T __Z32diagnostic_report_current_moduleP18diagnostic_contextj
00021814 T __Z29diagnostic_get_color_for_kind12diagnostic_t
00021770 T __Z17diagnostic_finishP18diagnostic_context
00021730 T __Z21diagnostic_color_initP18diagnostic_contexti
000215fc T __Z21diagnostic_initializeP18diagnostic_contexti
00021574 T __Z30diagnostic_set_caret_max_widthP18diagnostic_contexti
00021520 T __Z18get_terminal_widthv
000214b8 T __Z19file_name_as_prefixP18diagnostic_contextPKc
00021440 T __Z32default_diagnostic_start_span_fnP18diagnostic_context17expanded_location
00021338 t __ZL28diagnostic_get_location_textP18diagnostic_context17expanded_location.isra.8
000212f8 T __Z20build_message_stringPKcz
000210f4 t __ZL11bt_callbackPvmPKciS1_
000210bc T __Z28default_diagnostic_finalizerP18diagnostic_contextP15diagnostic_info
0002102c t __ZL15bt_err_callbackPvPKci
00020c84 T __ZN21mem_alloc_descriptionI9mem_usageED1Ev
00020ac4 T __ZN21mem_alloc_descriptionI9mem_usageEC1Ev
00020ac0 T __Z30dump_hash_table_loc_statisticsv
000209fc T __Z29hash_table_higher_prime_indexm
000209f4 T __Z28default_target_handle_optionP11gcc_optionsS0_PK17cl_decoded_optionj
000209ec T __Z23sjlj_except_unwind_infoP11gcc_options
000209e4 T __Z25dwarf2_except_unwind_infoP11gcc_options
000209dc T __Z26default_except_unwind_infoP11gcc_options
00020634 T __ZN21mem_alloc_descriptionI9vec_usageED1Ev
00020454 T __ZN10hash_tableIN8hash_mapIPKv14mem_usage_pairI9mem_usageE21simple_hashmap_traitsI19default_hash_traitsIS2_ES5_EE10hash_entryE11xcallocatorE19find_slot_with_hashERKS2_j13insert_option
00020160 T __ZN10hash_tableIN8hash_mapIPKv14mem_usage_pairI9mem_usageE21simple_hashmap_traitsI19default_hash_traitsIS2_ES5_EE10hash_entryE11xcallocatorE6expandEv
0001ff80 T __ZN10hash_tableIN8hash_mapIPKv14mem_usage_pairI9vec_usageE21simple_hashmap_traitsI19default_hash_traitsIS2_ES5_EE10hash_entryE11xcallocatorE19find_slot_with_hashERKS2_j13insert_option
0001fc8c T __ZN10hash_tableIN8hash_mapIPKv14mem_usage_pairI9vec_usageE21simple_hashmap_traitsI19default_hash_traitsIS2_ES5_EE10hash_entryE11xcallocatorE6expandEv
0001fa78 T __ZN10hash_tableIN8hash_mapIN21mem_alloc_descriptionI9vec_usageE17mem_location_hashEPS2_21simple_hashmap_traitsI19default_hash_traitsIS4_ES5_EE10hash_entryE11xcallocatorE19find_slot_with_hashERKP12mem_locationj13insert_option
0001f6a8 T __ZN10hash_tableIN8hash_mapIN21mem_alloc_descriptionI9vec_usageE17mem_location_hashEPS2_21simple_hashmap_traitsI19default_hash_traitsIS4_ES5_EE10hash_entryE11xcallocatorE6expandEv
0001f4e8 T __ZN21mem_alloc_descriptionI9vec_usageEC1Ev
0001f3e8 T __ZN10hash_tableIN8hash_mapIPKv14mem_usage_pairI9mem_usageE21simple_hashmap_traitsI19default_hash_traitsIS2_ES5_EE10hash_entryE11xcallocatorE14find_with_hashERKS2_j
0001f294 T __ZN10hash_tableIN8hash_mapIN21mem_alloc_descriptionI9vec_usageE17mem_location_hashEPS2_21simple_hashmap_traitsI19default_hash_traitsIS4_ES5_EE10hash_entryE11xcallocatorE14find_with_hashERKP12mem_locationj
0001f194 T __ZN10hash_tableIN8hash_mapIPKv14mem_usage_pairI9vec_usageE21simple_hashmap_traitsI19default_hash_traitsIS2_ES5_EE10hash_entryE11xcallocatorE14find_with_hashERKS2_j
0001f064 T __ZNK9vec_usage4dumpEP12mem_locationR9mem_usage
0001f014 T __ZN9vec_usage7compareEPKvS1_
0001ecac T __ZN10vec_prefix17register_overheadEPvmm
0001e8f0 T __ZN10vec_prefix16release_overheadEPvmb
0001e50c T __Z23dump_vec_loc_statisticsv
0001e4a8 T __ZN10vec_prefix22calculate_allocation_1Ejj
0001e408 T __Z25init_global_opts_from_cppP11gcc_optionsPK11cpp_options
0001e240 T __Z22cpp_handle_option_autoPK11gcc_optionsmP11cpp_options
0001d55c T __Z25ObjCXX_handle_option_autoP11gcc_optionsS0_mPKcijijPK18cl_option_handlersP18diagnostic_context
0001c814 T __Z23ObjC_handle_option_autoP11gcc_optionsS0_mPKcijijPK18cl_option_handlersP18diagnostic_context
0001c80c T __Z22LTO_handle_option_autoP11gcc_optionsS0_mPKcijijPK18cl_option_handlersP18diagnostic_context
0001c804 T __Z23Java_handle_option_autoP11gcc_optionsS0_mPKcijijPK18cl_option_handlersP18diagnostic_context
0001c7fc T __Z21Go_handle_option_autoP11gcc_optionsS0_mPKcijijPK18cl_option_handlersP18diagnostic_context
0001c294 T __Z26Fortran_handle_option_autoP11gcc_optionsS0_mPKcijijPK18cl_option_handlersP18diagnostic_context
0001b538 T __Z22CXX_handle_option_autoP11gcc_optionsS0_mPKcijijPK18cl_option_handlersP18diagnostic_context
0001a778 T __Z20C_handle_option_autoP11gcc_optionsS0_mPKcijijPK18cl_option_handlersP18diagnostic_context
0001a770 T __Z25AdaWhy_handle_option_autoP11gcc_optionsS0_mPKcijijPK18cl_option_handlersP18diagnostic_context
0001a768 T __Z26AdaSCIL_handle_option_autoP11gcc_optionsS0_mPKcijijPK18cl_option_handlersP18diagnostic_context
0001a760 T __Z22Ada_handle_option_autoP11gcc_optionsS0_mPKcijijPK18cl_option_handlersP18diagnostic_context
0001a12c T __Z25common_handle_option_autoP11gcc_optionsS0_PK17cl_decoded_optionjijPK18cl_option_handlersP18diagnostic_context
0001a124 t __ZL37cl_enum_diagnostic_prefixing_rule_getPKv
0001a11c t __ZL37cl_enum_diagnostic_prefixing_rule_setPvi
0001a114 t __ZL33cl_enum_diagnostic_color_rule_getPKv
0001a10c t __ZL33cl_enum_diagnostic_color_rule_setPvi
0001a104 t __ZL31cl_enum_cpp_normalize_level_getPKv
0001a0fc t __ZL31cl_enum_cpp_normalize_level_setPvi
0001a0f4 t __ZL37cl_enum_compressed_debug_sections_getPKv
0001a0ec t __ZL37cl_enum_compressed_debug_sections_setPvi
0001a0e4 t __ZL34cl_enum_rs6000_alignment_flags_getPKv
0001a0dc t __ZL34cl_enum_rs6000_alignment_flags_setPvi
0001a0d4 t __ZL32cl_enum_dwarf_gnat_encodings_getPKv
0001a0cc t __ZL32cl_enum_dwarf_gnat_encodings_setPvi
0001a0c4 t __ZL24cl_enum_vtv_priority_getPKv
0001a0bc t __ZL24cl_enum_vtv_priority_setPvi
0001a0b4 t __ZL27cl_enum_vect_cost_model_getPKv
0001a0ac t __ZL27cl_enum_vect_cost_model_setPvi
0001a0a4 t __ZL21cl_enum_tls_model_getPKv
0001a09c t __ZL21cl_enum_tls_model_setPvi
0001a094 t __ZL29cl_enum_symbol_visibility_getPKv
0001a08c t __ZL29cl_enum_symbol_visibility_setPvi
0001a084 t __ZL29cl_enum_stack_reuse_level_getPKv
0001a07c t __ZL29cl_enum_stack_reuse_level_setPvi
0001a074 t __ZL22cl_enum_sso_struct_getPKv
0001a06c t __ZL22cl_enum_sso_struct_setPvi
0001a064 t __ZL33cl_enum_rs6000_traceback_type_getPKv
0001a05c t __ZL33cl_enum_rs6000_traceback_type_setPvi
0001a054 t __ZL29cl_enum_rs6000_float_gprs_getPKv
0001a04c t __ZL29cl_enum_rs6000_float_gprs_setPvi
0001a044 t __ZL32cl_enum_rs6000_cpu_opt_value_getPKv
0001a03c t __ZL32cl_enum_rs6000_cpu_opt_value_setPvi
0001a034 t __ZL36cl_enum_reorder_blocks_algorithm_getPKv
0001a02c t __ZL36cl_enum_reorder_blocks_algorithm_setPvi
0001a024 t __ZL23cl_enum_offload_abi_getPKv
0001a01c t __ZL23cl_enum_offload_abi_setPvi
0001a014 t __ZL31cl_enum_lto_partition_model_getPKv
0001a00c t __ZL31cl_enum_lto_partition_model_setPvi
0001a004 t __ZL29cl_enum_lto_linker_output_getPKv
00019ffc t __ZL29cl_enum_lto_linker_output_setPvi
00019ff4 t __ZL27cl_enum_ivar_visibility_getPKv
00019fec t __ZL27cl_enum_ivar_visibility_setPvi
00019fe4 t __ZL22cl_enum_ira_region_getPKv
00019fdc t __ZL22cl_enum_ira_region_setPvi
00019fd4 t __ZL25cl_enum_ira_algorithm_getPKv
00019fcc t __ZL25cl_enum_ira_algorithm_setPvi
00019fc4 t __ZL31cl_enum_gfc_init_local_real_getPKv
00019fbc t __ZL31cl_enum_gfc_init_local_real_setPvi
00019fb4 t __ZL24cl_enum_gfc_fcoarray_getPKv
00019fac t __ZL24cl_enum_gfc_fcoarray_setPvi
00019fa4 t __ZL23cl_enum_gfc_convert_getPKv
00019f9c t __ZL23cl_enum_gfc_convert_setPvi
00019f94 t __ZL22cl_enum_fpu_type_t_getPKv
00019f8c t __ZL22cl_enum_fpu_type_t_setPvi
00019f84 t __ZL28cl_enum_fp_contract_mode_getPKv
00019f7c t __ZL28cl_enum_fp_contract_mode_setPvi
00019f74 t __ZL28cl_enum_excess_precision_getPKv
00019f6c t __ZL28cl_enum_excess_precision_setPvi
00019ce0 T __Z22control_warning_optionjiPKcbjjPK18cl_option_handlersP11gcc_optionsS5_P18diagnostic_context
00019b3c T __Z16get_option_stateP11gcc_optionsiP15cl_option_state
000199f8 T __Z14option_enablediPv
000199c8 T __Z15option_flag_variP11gcc_options
00019860 T __Z19read_cmdline_optionP11gcc_optionsS0_P17cl_decoded_optionjjPK18cl_option_handlersP18diagnostic_context
000197e4 T __Z23handle_generated_optionP11gcc_optionsS0_mPKcijijPK18cl_option_handlersP18diagnostic_context
000196bc t __ZL13handle_optionP11gcc_optionsS0_PK17cl_decoded_optionjijPK18cl_option_handlersbP18diagnostic_context
000191fc T __Z10set_optionP11gcc_optionsS0_iiPKcijP18diagnostic_context
000191c0 T __Z26generate_option_input_filePKcP17cl_decoded_option
000190b4 T __Z15generate_optionmPKcijP17cl_decoded_option
00018138 T __Z31decode_cmdline_options_to_arrayjPPKcjPP17cl_decoded_optionPj
00017f3c t __ZL25generate_canonical_optionmPKciP17cl_decoded_option
00017ddc T __Z11opts_concatPKcz
00017abc T __Z26add_misspelling_candidatesP8auto_vecIPcLm0EEPK9cl_optionPKc
00017a04 T __Z17enum_value_to_argPK11cl_enum_argPPKcij
000179a8 T __Z21opt_enum_arg_to_valuemPKcPij
000178e0 T __Z17integral_argumentPKc
000176d4 T __Z8find_optPKcj
00017630 t __ZL17enum_arg_to_valuePK11cl_enum_argPKcPij
00017424 t __ZL20cmdline_handle_errorjPK9cl_optionPKcS3_ij
000173a0 T __Z11option_nameP18diagnostic_contexti12diagnostic_tS1_
0001733c T __Z28fast_math_flags_struct_set_pP15cl_optimization
000172ec T __Z21fast_math_flags_set_pPK11gcc_options
00015ef4 T __Z20common_handle_optionP11gcc_optionsS0_PK17cl_decoded_optionjijPK18cl_option_handlersP18diagnostic_context
00015d48 T __Z23parse_sanitizer_optionsPKcjijib
0001561c T __Z14finish_optionsP11gcc_optionsS0_j
00015288 T __Z28default_options_optimizationP11gcc_optionsS0_P17cl_decoded_optionjjjPK18cl_option_handlersP18diagnostic_context
00015280 T __Z23finalize_options_structP11gcc_options
0001518c T __Z19init_options_structP11gcc_optionsS0_
00015168 T __Z17init_opts_obstackv
000150ec T __Z20target_handle_optionP11gcc_optionsS0_PK17cl_decoded_optionjijPK18cl_option_handlersP18diagnostic_context
00015058 T __Z12base_of_pathPKcPS0_
00014fec T __Z16strip_off_endingPci
00014cd8 T __Z23set_struct_debug_optionP11gcc_optionsjPKc
000149b4 t __ZL29add_comma_separated_to_vectorPPvPKc
00014844 t __ZL15set_debug_level15debug_info_typeiPKcP11gcc_optionsS3_j.isra.1
000145b0 t __ZL19print_specific_helpjjjP11gcc_optionsj
00013e84 t __ZL19print_filtered_helpjjjjP11gcc_optionsj
00013ce8 t __ZL9wrap_helpPKcS0_jj
000139e4 t __ZL20maybe_default_optionP11gcc_optionsS0_PK15default_optionsibbbjPK18cl_option_handlersjP18diagnostic_context
0001385c t __ZL24enable_fdo_optimizationsP11gcc_optionsS0_i
00013850 T __Z23get_num_compiler_paramsv
000137d4 T __Z17init_param_valuesPi
000137bc T __Z19default_param_value14compiler_param
00013770 T __Z23set_default_param_value14compiler_parami
00013724 T __Z21maybe_set_param_value14compiler_paramiPiS0_
0001360c T __Z15set_param_valuePKciPiS1_
00013568 T __Z20param_string_value_p14compiler_paramPKcPi
000134e8 T __Z10find_paramPKcP14compiler_param
000134a0 T __Z17params_c_finalizev
00013490 T __Z13finish_paramsv
0001342c T __Z18global_init_paramsv
0001339c T __Z10add_paramsPK10param_infom
0001334c T _set_std_prefix
00013090 T _update_path
00012edc t __ZL14translate_namePc
0001286c t __ZL20rs6000_handle_optionP11gcc_optionsS0_PK17cl_decoded_optionj
00012860 t __ZL28rs6000_option_default_paramsv
00012824 t __ZL27rs6000_supports_split_stackbP11gcc_options
00012818 t __ZL25rs6000_option_init_structP11gcc_options
000122a8 T __Z18darwin_driver_initPjPP17cl_decoded_option
00011cc4 T __Z21host_detect_local_cpuiPPKc
00011c38 t __ZL14describe_cachejjjj.isra.0
00011c30 T __Z22lang_specific_pre_linkv
00011c2c T __Z20lang_specific_driverPP17cl_decoded_optionPjPi
00011a9c T __Z19find_closest_stringPKcPK8auto_vecIS0_Lm0EE
00011a18 T __Z20levenshtein_distancePKcS0_
000119f4 T __Z20levenshtein_distancePKciS0_i
00011894 t __Z20levenshtein_distancePKciS0_i.part.0
00011890 T __Z8ggc_growv
0001188c T __Z8ggc_freePv
00011888 T __Z16ggc_realloc_statPvm
00011854 T __Z26ggc_internal_cleared_allocmPFvPvEmm
00011824 T __Z18ggc_internal_allocmPFvPvEmm
00011820 T __Z20ggc_round_alloc_sizem
000117ac T __Z33driver_get_configure_time_optionsPFvPKcPvES1_
000112d4 T __ZN6driver8finalizeEv
00011298 T __ZN10used_arg_t8finalizeEv
00010184 T __ZNK6driver12set_up_specsEv
0000fcb4 T __ZN10used_arg_tclEPKci
0000fa30 T __ZNK6driver16maybe_run_linkerEPKc
0000f344 T __ZNK6driver18do_spec_on_infilesEv
0000f2a0 T __Z7do_specPKc
0000f028 t __ZL12do_self_specPKc
0000ed18 t __ZL36compare_debug_dump_opt_spec_functioniPPKc
0000ec14 t __ZL36compare_debug_self_opt_spec_functioniPPKc
0000e2e4 t __ZL13handle_bracesPKc
0000dee8 t __ZL20handle_spec_functionPKcPb
0000dd58 t __ZL11give_switchii
0000dce8 t __ZL12do_specs_vec3vecIPc7va_heap6vl_ptrE
0000db94 t __ZL9spec_pathPcPv
0000daf8 t __ZL9do_spec_2PKc
0000bd68 t __ZL9do_spec_1PKciS0_
0000b030 t __ZL7executev
0000ac68 t __ZL18try_generate_reproPPKc
0000aaf8 t __ZL11run_attemptPPKcS0_S0_ii
0000aa58 t __ZL21include_spec_functioniPPKc
0000a0e4 t __ZL10read_specsPKcbb
0000a090 T __Z16pfatal_with_namePKc
0000a024 T __ZNK6driver13get_exit_codeEv
00009f6c T __ZNK6driver13final_actionsEv
00009d28 T __ZN6driver15prepare_infilesEv
00009014 T __ZNK6driver20maybe_print_and_exitEv
00008f4c T __ZN6driver27handle_unrecognized_optionsEv
00008ee4 T __ZN6driver14suggest_optionEPKc
00008d58 T __ZN6driver24build_option_suggestionsEv
00008bc0 T __ZNK6driver28maybe_putenv_OFFLOAD_TARGETSEv
00008944 T __ZNK6driver32maybe_putenv_COLLECT_LTO_WRAPPEREv
000087e0 T __ZNK6driver18putenv_COLLECT_GCCEPKc
00008410 T __ZNK6driver22build_multilib_stringsEv
000082a0 T __ZN6driver22global_initializationsEv
0000823c T __ZN6driver11decode_argvEiPPKc
000081ec T __ZNK6driver15expand_at_filesEPiPPPc
00008168 T __ZNK6driver12set_prognameEPKc
00008164 T __ZN6driverD2Ev
00008068 T __ZN6driverD1Ev
00008044 T __ZN6driverC1Ebb
00008020 T __ZN6driverC2Ebb
00007f2c T __Z9set_inputPKc
00007d8c t __ZL13end_going_argv.part.34
00007bcc t __ZL9store_argPKcii
00007ac8 T __Z16record_temp_filePKcii
000079a4 T __ZN11env_manager7restoreEv
00006b4c t __ZL15process_commandjP17cl_decoded_option
00006638 t __ZL23set_collect_gcc_optionsv
00006404 T __ZN11env_manager4xputEPKc
00006318 t __ZL20getenv_spec_functioniPPKc
000062b8 T __ZN11env_manager3getEPKc
000062ac T __ZN11env_manager4initEbb
00005534 t __ZL20driver_handle_optionP11gcc_optionsS0_PK17cl_decoded_optionjijPK18cl_option_handlersP18diagnostic_context
000053e4 t __ZL23add_preprocessor_optionPKci
00005294 t __ZL17add_linker_optionPKci
00005144 t __ZL20add_assembler_optionPKci
00005030 t __ZL20add_sysrooted_prefixP11path_prefixPKcS2_iii.constprop.40
00004f40 t __ZL9init_specv.part.15
00004eb8 t __ZL12fatal_signali
00004e68 t __ZL17delete_temp_filesv
00004de4 t __ZL18delete_if_ordinaryPKc
00004d04 t __ZL27replace_extension_spec_funciPPKc
00004c14 t __ZL14add_to_obstackPcPv
00004ba4 t __ZL23find_file_spec_functioniPPKc
00004b08 t __ZL28find_plugindir_spec_functioniPPKc
00004a54 t __ZL11find_a_filePK11path_prefixPKcib
00004878 t __ZL17build_search_listPK11path_prefixPKcbb
00004330 t __ZL13for_each_pathPK11path_prefixbmPFPvPcS2_ES2_.isra.8
000042e0 t __ZL26driver_wrong_lang_callbackPK17cl_decoded_optionj
00004240 t __ZL12alloc_infilev
00004180 t __ZL30driver_unknown_option_callbackPK17cl_decoded_option
00004098 t __ZL11save_switchPKcmPKS0_bb
00003ff8 t __ZL12alloc_switchv
00003f50 t __ZL29replace_outfile_spec_functioniPPKc
00003eb0 t __ZL28remove_outfile_spec_functioniPPKc
00003e54 t __ZL17path_prefix_resetP11path_prefix.isra.1
00003da4 t __ZL10add_prefixP11path_prefixPKcS2_iii
00003ce8 t __ZL15insert_commentsPKcS0_
00003b78 t __ZL13files_equal_pPcS_
000038ac t __ZL29version_compare_spec_functioniPPKc
00003788 t __ZL23compare_version_stringsPKcS0_
00003740 t __ZL30print_asm_header_spec_functioniPPKc
00003654 t __ZL22greater_than_spec_funciPPKc
000034f8 t __ZL12is_directoryPKcb
00003348 t __ZL15lookup_compilerPKcmS0_
000031d0 t __ZL8set_specPKcS0_b
00003130 t __ZL12file_at_pathPcPv
00003000 t __ZL39compare_debug_auxbase_opt_spec_functioniPPKc
00002ec4 t __ZL27pass_through_libs_spec_funciPPKc
00002e38 t __ZL11default_argPKci
00002b30 t __ZL17validate_switchesPKcb
00002a14 t __ZL19print_configurationP7__sFILE
000027c8 t __ZL17check_live_switchii
00002750 t __ZL23if_exists_spec_functioniPPKc
000026d8 t __ZL28if_exists_else_spec_functioniPPKc
00002660 t __ZL12access_checkPKci
00002518 t __ZL22sanitize_spec_functioniPPKc
000024d0 t __ZL11save_stringPKci
00002430 t __ZL15skip_whitespacePc
00002410 t __dyld_func_lookup
000023e0 t dyld_stub_binding_helper
00002398 T start
00001000 A __mh_execute_header
         U _write$UNIX2003
         U _waitpid$UNIX2003
         U _wait4
         U _vsprintf$LDBL128
         U _vfprintf$LDBL128
         U _vfork
         U _unsetenv$UNIX2003
         U _unlink
         U _ungetc
         U _time
         U _sysctlbyname
         U _sysctl
         U _strtoul
         U _strtol
         U _strtok
         U _strstr
         U _strsignal
         U _strrchr
         U _strncpy
         U _strncmp
         U _strncasecmp
         U _strlen
         U _strerror$UNIX2003
         U _strerror
         U _strdup
         U _strcspn
         U _strcpy
         U _strcmp
         U _strchr
         U _strcat
         U _strcasecmp
         U _stpcpy
         U _stat
         U _sscanf$LDBL128
         U _sprintf$LDBL128
         U _snprintf$LDBL128
         U _sleep$UNIX2003
         U _signal
         U _setrlimit$UNIX2003
         U _setenv$UNIX2003
         U _sbrk
         U _remove
         U _realpath$DARWIN_EXTSN
         U _realloc
         U _readdir
         U _read$UNIX2003
         U _qsort
         U _puts
         U _putenv$UNIX2003
         U _putchar
         U _pthread_setspecific
         U _pthread_once
         U _pthread_mutex_unlock
         U _pthread_mutex_lock
         U _pthread_key_create
         U _pthread_getspecific
         U _printf$LDBL128
         U _pipe
         U _opendir$UNIX2003
         U _open$UNIX2003
         U _munmap$UNIX2003
         U _mmap$UNIX2003
         U _mkstemps
         U _memset
         U _memmove
         U _memcpy
         U _memcmp
         U _memchr
         U _malloc
         U _localtime
         U _kill$UNIX2003
         U _isatty
         U _iconv_open
         U _iconv_close
         U _iconv
         U _gettimeofday
         U _getsectdatafromheader
         U _getrlimit$UNIX2003
         U _getpid
         U _getpagesize
         U _getenv
         U _fwrite$UNIX2003
         U _ftell
         U _fstat
         U _fseek
         U _freopen$UNIX2003
         U _free
         U _fread
         U _fputs$UNIX2003
         U _fputc
         U _fprintf$LDBL128
         U _fopen
         U _fgets
         U _fgetc
         U _fflush
         U _ferror
         U _feof
         U _fdopen
         U _fcntl$UNIX2003
         U _fclose
         U _exit
         U _execvp
         U _execv
         U _dup2
         U _closedir$UNIX2003
         U _close$UNIX2003
         U _calloc
         U _bsearch
         U _atoi
         U _atexit
         U _asprintf$LDBL128
         U _asctime
         U _access
         U _abort
         U __keymgr_unlock_processwide_ptr
         U __keymgr_set_and_unlock_processwide_ptr
         U __keymgr_get_and_lock_processwide_ptr
         U __exit
         U __cpu_has_altivec
         U ___tolower
         U ___swbuf
         U ___stdoutp
         U ___stderrp
         U ___srget
         U ___maskrune
         U ___error
         U ___cxa_atexit
         U __NSGetEnviron
         U __DefaultRuneLocale
